
Minimal:     file format elf32-littleriscv


Disassembly of section .text:

00010074 <exit>:
   10074:	ff010113          	addi	sp,sp,-16
   10078:	00000593          	li	a1,0
   1007c:	00812423          	sw	s0,8(sp)
   10080:	00112623          	sw	ra,12(sp)
   10084:	00050413          	mv	s0,a0
   10088:	429110ef          	jal	ra,21cb0 <__call_exitprocs>
   1008c:	2301a503          	lw	a0,560(gp) # 34e20 <_global_impure_ptr>
   10090:	03c52783          	lw	a5,60(a0)
   10094:	00078463          	beqz	a5,1009c <exit+0x28>
   10098:	000780e7          	jalr	a5
   1009c:	00040513          	mv	a0,s0
   100a0:	344210ef          	jal	ra,313e4 <_exit>

000100a4 <register_fini>:
   100a4:	00000793          	li	a5,0
   100a8:	00078863          	beqz	a5,100b8 <register_fini+0x14>
   100ac:	00012517          	auipc	a0,0x12
   100b0:	40050513          	addi	a0,a0,1024 # 224ac <__libc_fini_array>
   100b4:	0d80806f          	j	1818c <atexit>
   100b8:	00008067          	ret

000100bc <_start>:
.globl _start
.type _start,@function

_start:
  // set stack pointer
  li sp, 0x20001000
   100bc:	20001137          	lui	sp,0x20001

  .option push
  .option norelax
  la gp, __global_pointer$
   100c0:	00025197          	auipc	gp,0x25
   100c4:	b3018193          	addi	gp,gp,-1232 # 34bf0 <__global_pointer$>
  .option pop

  // set argc, argv
  li a0, 0
   100c8:	00000513          	li	a0,0
  li a1, 0
   100cc:	00000593          	li	a1,0

  // jump to main
  call main
   100d0:	6f5050ef          	jal	ra,15fc4 <main>

000100d4 <compare_tags>:
 * is greater.
 * @param tag1
 * @param tag2
 * @return -1, 0, or 1 depending on the relation.
 */
int compare_tags(tag_t tag1, tag_t tag2) {
   100d4:	ff010113          	addi	sp,sp,-16 # 20000ff0 <__BSS_END__+0x1ffcc040>
   100d8:	00812623          	sw	s0,12(sp)
   100dc:	00912423          	sw	s1,8(sp)
   100e0:	01212223          	sw	s2,4(sp)
   100e4:	01010413          	addi	s0,sp,16
   100e8:	00050913          	mv	s2,a0
   100ec:	00058493          	mv	s1,a1
    if (tag1.time < tag2.time) {
   100f0:	00092703          	lw	a4,0(s2)
   100f4:	00492783          	lw	a5,4(s2)
   100f8:	0004a603          	lw	a2,0(s1)
   100fc:	0044a683          	lw	a3,4(s1)
   10100:	00068513          	mv	a0,a3
   10104:	00078593          	mv	a1,a5
   10108:	00a5ce63          	blt	a1,a0,10124 <compare_tags+0x50>
   1010c:	00068513          	mv	a0,a3
   10110:	00078593          	mv	a1,a5
   10114:	00b51c63          	bne	a0,a1,1012c <compare_tags+0x58>
   10118:	00060693          	mv	a3,a2
   1011c:	00070793          	mv	a5,a4
   10120:	00d7f663          	bgeu	a5,a3,1012c <compare_tags+0x58>
        return -1;
   10124:	fff00793          	li	a5,-1
   10128:	06c0006f          	j	10194 <compare_tags+0xc0>
    } else if (tag1.time > tag2.time) {
   1012c:	00092603          	lw	a2,0(s2)
   10130:	00492683          	lw	a3,4(s2)
   10134:	0004a703          	lw	a4,0(s1)
   10138:	0044a783          	lw	a5,4(s1)
   1013c:	00068513          	mv	a0,a3
   10140:	00078593          	mv	a1,a5
   10144:	00a5ce63          	blt	a1,a0,10160 <compare_tags+0x8c>
   10148:	00068513          	mv	a0,a3
   1014c:	00078593          	mv	a1,a5
   10150:	00b51c63          	bne	a0,a1,10168 <compare_tags+0x94>
   10154:	00060693          	mv	a3,a2
   10158:	00070793          	mv	a5,a4
   1015c:	00d7f663          	bgeu	a5,a3,10168 <compare_tags+0x94>
        return 1;
   10160:	00100793          	li	a5,1
   10164:	0300006f          	j	10194 <compare_tags+0xc0>
    } else if (tag1.microstep < tag2.microstep) {
   10168:	00892703          	lw	a4,8(s2)
   1016c:	0084a783          	lw	a5,8(s1)
   10170:	00f77663          	bgeu	a4,a5,1017c <compare_tags+0xa8>
        return -1;
   10174:	fff00793          	li	a5,-1
   10178:	01c0006f          	j	10194 <compare_tags+0xc0>
    } else if (tag1.microstep > tag2.microstep) {
   1017c:	00892703          	lw	a4,8(s2)
   10180:	0084a783          	lw	a5,8(s1)
   10184:	00e7f663          	bgeu	a5,a4,10190 <compare_tags+0xbc>
        return 1;
   10188:	00100793          	li	a5,1
   1018c:	0080006f          	j	10194 <compare_tags+0xc0>
    } else {
        return 0;
   10190:	00000793          	li	a5,0
    }
}
   10194:	00078513          	mv	a0,a5
   10198:	00c12403          	lw	s0,12(sp)
   1019c:	00812483          	lw	s1,8(sp)
   101a0:	00412903          	lw	s2,4(sp)
   101a4:	01010113          	addi	sp,sp,16
   101a8:	00008067          	ret

000101ac <delay_tag>:
 * interval (except NEVER), but this is not checked.
 *
 * @param tag The tag to increment.
 * @param interval The time interval.
 */
tag_t delay_tag(tag_t tag, interval_t interval) {
   101ac:	fd010113          	addi	sp,sp,-48
   101b0:	02812623          	sw	s0,44(sp)
   101b4:	02912423          	sw	s1,40(sp)
   101b8:	03010413          	addi	s0,sp,48
   101bc:	fca42e23          	sw	a0,-36(s0)
   101c0:	00058493          	mv	s1,a1
   101c4:	fcc42823          	sw	a2,-48(s0)
   101c8:	fcd42a23          	sw	a3,-44(s0)
	if (tag.time == NEVER || interval == NEVER) return tag;
   101cc:	0004a703          	lw	a4,0(s1)
   101d0:	0044a783          	lw	a5,4(s1)
   101d4:	00070693          	mv	a3,a4
   101d8:	00069863          	bnez	a3,101e8 <delay_tag+0x3c>
   101dc:	00078713          	mv	a4,a5
   101e0:	800007b7          	lui	a5,0x80000
   101e4:	00f70c63          	beq	a4,a5,101fc <delay_tag+0x50>
   101e8:	fd042783          	lw	a5,-48(s0)
   101ec:	02079c63          	bnez	a5,10224 <delay_tag+0x78>
   101f0:	fd442703          	lw	a4,-44(s0)
   101f4:	800007b7          	lui	a5,0x80000
   101f8:	02f71663          	bne	a4,a5,10224 <delay_tag+0x78>
   101fc:	fdc42783          	lw	a5,-36(s0)
   10200:	0004a583          	lw	a1,0(s1)
   10204:	0044a603          	lw	a2,4(s1)
   10208:	0084a683          	lw	a3,8(s1)
   1020c:	00c4a703          	lw	a4,12(s1)
   10210:	00b7a023          	sw	a1,0(a5) # 80000000 <__BSS_END__+0x7ffcb050>
   10214:	00c7a223          	sw	a2,4(a5)
   10218:	00d7a423          	sw	a3,8(a5)
   1021c:	00e7a623          	sw	a4,12(a5)
   10220:	1100006f          	j	10330 <delay_tag+0x184>
	tag_t result = tag;
   10224:	0004a603          	lw	a2,0(s1)
   10228:	0044a683          	lw	a3,4(s1)
   1022c:	0084a703          	lw	a4,8(s1)
   10230:	00c4a783          	lw	a5,12(s1)
   10234:	fec42023          	sw	a2,-32(s0)
   10238:	fed42223          	sw	a3,-28(s0)
   1023c:	fee42423          	sw	a4,-24(s0)
   10240:	fef42623          	sw	a5,-20(s0)
	if (interval == 0LL) {
   10244:	fd042783          	lw	a5,-48(s0)
   10248:	fd442703          	lw	a4,-44(s0)
   1024c:	00e7e7b3          	or	a5,a5,a4
   10250:	00079a63          	bnez	a5,10264 <delay_tag+0xb8>
		// Note that unsigned variables will wrap on overflow.
		// This is probably the only reasonable thing to do with overflowing
		// microsteps.
		result.microstep++;
   10254:	fe842783          	lw	a5,-24(s0)
   10258:	00178793          	addi	a5,a5,1
   1025c:	fef42423          	sw	a5,-24(s0)
   10260:	0ac0006f          	j	1030c <delay_tag+0x160>
	} else {
		// Note that overflow in C is undefined for signed variables.
		if (FOREVER - interval < result.time) {
   10264:	fff00713          	li	a4,-1
   10268:	800007b7          	lui	a5,0x80000
   1026c:	fff7c793          	not	a5,a5
   10270:	fd042503          	lw	a0,-48(s0)
   10274:	fd442583          	lw	a1,-44(s0)
   10278:	40a70633          	sub	a2,a4,a0
   1027c:	00060813          	mv	a6,a2
   10280:	01073833          	sltu	a6,a4,a6
   10284:	40b786b3          	sub	a3,a5,a1
   10288:	410687b3          	sub	a5,a3,a6
   1028c:	00078693          	mv	a3,a5
   10290:	fe042703          	lw	a4,-32(s0)
   10294:	fe442783          	lw	a5,-28(s0)
   10298:	00078513          	mv	a0,a5
   1029c:	00068593          	mv	a1,a3
   102a0:	00a5cc63          	blt	a1,a0,102b8 <delay_tag+0x10c>
   102a4:	00078513          	mv	a0,a5
   102a8:	00068593          	mv	a1,a3
   102ac:	02b51263          	bne	a0,a1,102d0 <delay_tag+0x124>
   102b0:	00060793          	mv	a5,a2
   102b4:	00e7fe63          	bgeu	a5,a4,102d0 <delay_tag+0x124>
			result.time = FOREVER;
   102b8:	fff00713          	li	a4,-1
   102bc:	800007b7          	lui	a5,0x80000
   102c0:	fff7c793          	not	a5,a5
   102c4:	fee42023          	sw	a4,-32(s0)
   102c8:	fef42223          	sw	a5,-28(s0)
   102cc:	03c0006f          	j	10308 <delay_tag+0x15c>
		} else {
			result.time += interval;
   102d0:	fe042703          	lw	a4,-32(s0)
   102d4:	fe442783          	lw	a5,-28(s0)
   102d8:	fd042503          	lw	a0,-48(s0)
   102dc:	fd442583          	lw	a1,-44(s0)
   102e0:	00a70633          	add	a2,a4,a0
   102e4:	00060813          	mv	a6,a2
   102e8:	00e83833          	sltu	a6,a6,a4
   102ec:	00b786b3          	add	a3,a5,a1
   102f0:	00d807b3          	add	a5,a6,a3
   102f4:	00078693          	mv	a3,a5
   102f8:	00060713          	mv	a4,a2
   102fc:	00068793          	mv	a5,a3
   10300:	fee42023          	sw	a4,-32(s0)
   10304:	fef42223          	sw	a5,-28(s0)
		}
		result.microstep = 0;
   10308:	fe042423          	sw	zero,-24(s0)
	}
	return result;
   1030c:	fdc42783          	lw	a5,-36(s0)
   10310:	fe042583          	lw	a1,-32(s0)
   10314:	fe442603          	lw	a2,-28(s0)
   10318:	fe842683          	lw	a3,-24(s0)
   1031c:	fec42703          	lw	a4,-20(s0)
   10320:	00b7a023          	sw	a1,0(a5) # 80000000 <__BSS_END__+0x7ffcb050>
   10324:	00c7a223          	sw	a2,4(a5)
   10328:	00d7a423          	sw	a3,8(a5)
   1032c:	00e7a623          	sw	a4,12(a5)
}
   10330:	fdc42503          	lw	a0,-36(s0)
   10334:	02c12403          	lw	s0,44(sp)
   10338:	02812483          	lw	s1,40(sp)
   1033c:	03010113          	addi	sp,sp,48
   10340:	00008067          	ret

00010344 <get_elapsed_logical_time>:

/**
 * Return the elapsed logical time in nanoseconds since the start of execution.
 */
interval_t get_elapsed_logical_time() {
   10344:	ff010113          	addi	sp,sp,-16
   10348:	00812623          	sw	s0,12(sp)
   1034c:	01010413          	addi	s0,sp,16
    return current_tag.time - start_time;
   10350:	34818793          	addi	a5,gp,840 # 34f38 <current_tag>
   10354:	0007a703          	lw	a4,0(a5)
   10358:	0047a783          	lw	a5,4(a5)
   1035c:	2401a503          	lw	a0,576(gp) # 34e30 <start_time>
   10360:	2441a583          	lw	a1,580(gp) # 34e34 <start_time+0x4>
   10364:	40a70633          	sub	a2,a4,a0
   10368:	00060813          	mv	a6,a2
   1036c:	01073833          	sltu	a6,a4,a6
   10370:	40b786b3          	sub	a3,a5,a1
   10374:	410687b3          	sub	a5,a3,a6
   10378:	00078693          	mv	a3,a5
   1037c:	00060713          	mv	a4,a2
   10380:	00068793          	mv	a5,a3
}
   10384:	00070513          	mv	a0,a4
   10388:	00078593          	mv	a1,a5
   1038c:	00c12403          	lw	s0,12(sp)
   10390:	01010113          	addi	sp,sp,16
   10394:	00008067          	ret

00010398 <get_current_tag>:

/**
 * Return the current tag, a logical time, microstep pair.
 */
tag_t get_current_tag() {
   10398:	fe010113          	addi	sp,sp,-32
   1039c:	00812e23          	sw	s0,28(sp)
   103a0:	02010413          	addi	s0,sp,32
   103a4:	fea42623          	sw	a0,-20(s0)
    return current_tag;
   103a8:	fec42783          	lw	a5,-20(s0)
   103ac:	34818713          	addi	a4,gp,840 # 34f38 <current_tag>
   103b0:	00072583          	lw	a1,0(a4)
   103b4:	00472603          	lw	a2,4(a4)
   103b8:	00872683          	lw	a3,8(a4)
   103bc:	00c72703          	lw	a4,12(a4)
   103c0:	00b7a023          	sw	a1,0(a5)
   103c4:	00c7a223          	sw	a2,4(a5)
   103c8:	00d7a423          	sw	a3,8(a5)
   103cc:	00e7a623          	sw	a4,12(a5)
}
   103d0:	fec42503          	lw	a0,-20(s0)
   103d4:	01c12403          	lw	s0,28(sp)
   103d8:	02010113          	addi	sp,sp,32
   103dc:	00008067          	ret

000103e0 <get_logical_time>:

/**
 * Return the current logical time in nanoseconds since January 1, 1970.
 */
instant_t get_logical_time() {
   103e0:	ff010113          	addi	sp,sp,-16
   103e4:	00812623          	sw	s0,12(sp)
   103e8:	01010413          	addi	s0,sp,16
    return current_tag.time;
   103ec:	34818793          	addi	a5,gp,840 # 34f38 <current_tag>
   103f0:	0007a703          	lw	a4,0(a5)
   103f4:	0047a783          	lw	a5,4(a5)
}
   103f8:	00070513          	mv	a0,a4
   103fc:	00078593          	mv	a1,a5
   10400:	00c12403          	lw	s0,12(sp)
   10404:	01010113          	addi	sp,sp,16
   10408:	00008067          	ret

0001040c <get_microstep>:

/**
 * Return the current microstep.
 */
microstep_t get_microstep() {
   1040c:	ff010113          	addi	sp,sp,-16
   10410:	00812623          	sw	s0,12(sp)
   10414:	01010413          	addi	s0,sp,16
    return current_tag.microstep;
   10418:	34818793          	addi	a5,gp,840 # 34f38 <current_tag>
   1041c:	0087a783          	lw	a5,8(a5)
}
   10420:	00078513          	mv	a0,a5
   10424:	00c12403          	lw	s0,12(sp)
   10428:	01010113          	addi	sp,sp,16
   1042c:	00008067          	ret

00010430 <get_physical_time>:

/**
 * Return the current physical time in nanoseconds since January 1, 1970,
 * adjusted by the global physical time offset.
 */
instant_t get_physical_time() {
   10430:	fe010113          	addi	sp,sp,-32
   10434:	00112e23          	sw	ra,28(sp)
   10438:	00812c23          	sw	s0,24(sp)
   1043c:	02010413          	addi	s0,sp,32
    // Get the current clock value
    int result = lf_clock_gettime(&_lf_last_reported_unadjusted_physical_time_ns);
   10440:	24818513          	addi	a0,gp,584 # 34e38 <_lf_last_reported_unadjusted_physical_time_ns>
   10444:	72d050ef          	jal	ra,16370 <lf_clock_gettime>
   10448:	fea42623          	sw	a0,-20(s0)

    if (result != 0) {
   1044c:	fec42783          	lw	a5,-20(s0)
   10450:	00078863          	beqz	a5,10460 <get_physical_time+0x30>
        error_print("Failed to read the physical clock.");
   10454:	000317b7          	lui	a5,0x31
   10458:	3f078513          	addi	a0,a5,1008 # 313f0 <_exit+0xc>
   1045c:	5a9010ef          	jal	ra,12204 <error_print>
    }
    
    // Adjust the reported clock with the appropriate offsets
    instant_t adjusted_clock_ns = _lf_last_reported_unadjusted_physical_time_ns
            + _lf_global_physical_clock_offset;
   10460:	2481a603          	lw	a2,584(gp) # 34e38 <_lf_last_reported_unadjusted_physical_time_ns>
   10464:	24c1a683          	lw	a3,588(gp) # 34e3c <_lf_last_reported_unadjusted_physical_time_ns+0x4>
   10468:	2881a503          	lw	a0,648(gp) # 34e78 <_lf_global_physical_clock_offset>
   1046c:	28c1a583          	lw	a1,652(gp) # 34e7c <_lf_global_physical_clock_offset+0x4>
    instant_t adjusted_clock_ns = _lf_last_reported_unadjusted_physical_time_ns
   10470:	00a60733          	add	a4,a2,a0
   10474:	00070813          	mv	a6,a4
   10478:	00c83833          	sltu	a6,a6,a2
   1047c:	00b687b3          	add	a5,a3,a1
   10480:	00f806b3          	add	a3,a6,a5
   10484:	00068793          	mv	a5,a3
   10488:	fee42023          	sw	a4,-32(s0)
   1048c:	fef42223          	sw	a5,-28(s0)

    // Apply the test offset
    adjusted_clock_ns += _lf_global_test_physical_clock_offset;
   10490:	2981a503          	lw	a0,664(gp) # 34e88 <_lf_global_test_physical_clock_offset>
   10494:	29c1a583          	lw	a1,668(gp) # 34e8c <_lf_global_test_physical_clock_offset+0x4>
   10498:	fe042603          	lw	a2,-32(s0)
   1049c:	fe442683          	lw	a3,-28(s0)
   104a0:	00a60733          	add	a4,a2,a0
   104a4:	00070813          	mv	a6,a4
   104a8:	00c83833          	sltu	a6,a6,a2
   104ac:	00b687b3          	add	a5,a3,a1
   104b0:	00f806b3          	add	a3,a6,a5
   104b4:	00068793          	mv	a5,a3
   104b8:	fee42023          	sw	a4,-32(s0)
   104bc:	fef42223          	sw	a5,-28(s0)
    //     DEBUG_PRINT("Physical time adjusted for clock drift by %lld.", drift);
    // }
    
    // Check if the clock has progressed since the last reported value
    // This ensures that the clock is monotonic
    if (adjusted_clock_ns > _lf_last_reported_physical_time_ns) {
   104c0:	2a01a703          	lw	a4,672(gp) # 34e90 <_lf_last_reported_physical_time_ns>
   104c4:	2a41a783          	lw	a5,676(gp) # 34e94 <_lf_last_reported_physical_time_ns+0x4>
   104c8:	fe442683          	lw	a3,-28(s0)
   104cc:	00078613          	mv	a2,a5
   104d0:	00d64e63          	blt	a2,a3,104ec <get_physical_time+0xbc>
   104d4:	fe442683          	lw	a3,-28(s0)
   104d8:	00078613          	mv	a2,a5
   104dc:	02c69063          	bne	a3,a2,104fc <get_physical_time+0xcc>
   104e0:	fe042683          	lw	a3,-32(s0)
   104e4:	00070793          	mv	a5,a4
   104e8:	00d7fa63          	bgeu	a5,a3,104fc <get_physical_time+0xcc>
        _lf_last_reported_physical_time_ns = adjusted_clock_ns;
   104ec:	fe042703          	lw	a4,-32(s0)
   104f0:	fe442783          	lw	a5,-28(s0)
   104f4:	2ae1a023          	sw	a4,672(gp) # 34e90 <_lf_last_reported_physical_time_ns>
   104f8:	2af1a223          	sw	a5,676(gp) # 34e94 <_lf_last_reported_physical_time_ns+0x4>
    DEBUG_PRINT("Physical time: %lld. Elapsed: %lld. Offset: %lld",
            _lf_last_reported_physical_time_ns,
            _lf_last_reported_physical_time_ns - start_time,
            _lf_global_physical_clock_offset + _lf_global_test_physical_clock_offset);

    return _lf_last_reported_physical_time_ns;
   104fc:	2a01a703          	lw	a4,672(gp) # 34e90 <_lf_last_reported_physical_time_ns>
   10500:	2a41a783          	lw	a5,676(gp) # 34e94 <_lf_last_reported_physical_time_ns+0x4>
}
   10504:	00070513          	mv	a0,a4
   10508:	00078593          	mv	a1,a5
   1050c:	01c12083          	lw	ra,28(sp)
   10510:	01812403          	lw	s0,24(sp)
   10514:	02010113          	addi	sp,sp,32
   10518:	00008067          	ret

0001051c <get_start_time>:
 * Return the physical time of the start of execution in nanoseconds. * 
 * On many platforms, this is the number of nanoseconds
 * since January 1, 1970, but it is actually platform dependent. * 
 * @return A time instant.
 */
instant_t get_start_time() {
   1051c:	ff010113          	addi	sp,sp,-16
   10520:	00812623          	sw	s0,12(sp)
   10524:	01010413          	addi	s0,sp,16
    return start_time;
   10528:	2401a703          	lw	a4,576(gp) # 34e30 <start_time>
   1052c:	2441a783          	lw	a5,580(gp) # 34e34 <start_time+0x4>
}
   10530:	00070513          	mv	a0,a4
   10534:	00078593          	mv	a1,a5
   10538:	00c12403          	lw	s0,12(sp)
   1053c:	01010113          	addi	sp,sp,16
   10540:	00008067          	ret

00010544 <get_elapsed_physical_time>:
 * Return the elapsed physical time in nanoseconds.
 * This is the time returned by get_physical_time() minus the
 * physical start time as measured by get_physical_time() when
 * the program was started.
 */
instant_t get_elapsed_physical_time() {
   10544:	ff010113          	addi	sp,sp,-16
   10548:	00112623          	sw	ra,12(sp)
   1054c:	00812423          	sw	s0,8(sp)
   10550:	01010413          	addi	s0,sp,16
    return get_physical_time() - physical_start_time;
   10554:	eddff0ef          	jal	ra,10430 <get_physical_time>
   10558:	00050613          	mv	a2,a0
   1055c:	00058693          	mv	a3,a1
   10560:	2381a503          	lw	a0,568(gp) # 34e28 <physical_start_time>
   10564:	23c1a583          	lw	a1,572(gp) # 34e2c <physical_start_time+0x4>
   10568:	40a60733          	sub	a4,a2,a0
   1056c:	00070813          	mv	a6,a4
   10570:	01063833          	sltu	a6,a2,a6
   10574:	40b687b3          	sub	a5,a3,a1
   10578:	410786b3          	sub	a3,a5,a6
   1057c:	00068793          	mv	a5,a3
}
   10580:	00070513          	mv	a0,a4
   10584:	00078593          	mv	a1,a5
   10588:	00c12083          	lw	ra,12(sp)
   1058c:	00812403          	lw	s0,8(sp)
   10590:	01010113          	addi	sp,sp,16
   10594:	00008067          	ret

00010598 <set_physical_clock_offset>:
 * Set a fixed offset to the physical clock.
 * After calling this, the value returned by get_physical_time()
 * and get_elpased_physical_time() will have this specified offset
 * added to what it would have returned before the call.
 */
void set_physical_clock_offset(interval_t offset) {
   10598:	fe010113          	addi	sp,sp,-32
   1059c:	00812e23          	sw	s0,28(sp)
   105a0:	02010413          	addi	s0,sp,32
   105a4:	fea42423          	sw	a0,-24(s0)
   105a8:	feb42623          	sw	a1,-20(s0)
    _lf_global_test_physical_clock_offset += offset;
   105ac:	2981a703          	lw	a4,664(gp) # 34e88 <_lf_global_test_physical_clock_offset>
   105b0:	29c1a783          	lw	a5,668(gp) # 34e8c <_lf_global_test_physical_clock_offset+0x4>
   105b4:	fe842503          	lw	a0,-24(s0)
   105b8:	fec42583          	lw	a1,-20(s0)
   105bc:	00a70633          	add	a2,a4,a0
   105c0:	00060813          	mv	a6,a2
   105c4:	00e83833          	sltu	a6,a6,a4
   105c8:	00b786b3          	add	a3,a5,a1
   105cc:	00d807b3          	add	a5,a6,a3
   105d0:	00078693          	mv	a3,a5
   105d4:	00060713          	mv	a4,a2
   105d8:	00068793          	mv	a5,a3
   105dc:	28e1ac23          	sw	a4,664(gp) # 34e88 <_lf_global_test_physical_clock_offset>
   105e0:	28f1ae23          	sw	a5,668(gp) # 34e8c <_lf_global_test_physical_clock_offset+0x4>
}
   105e4:	00000013          	nop
   105e8:	01c12403          	lw	s0,28(sp)
   105ec:	02010113          	addi	sp,sp,32
   105f0:	00008067          	ret

000105f4 <lf_readable_time>:
 * milliseconds.
 * @param buffer The buffer into which to write the string.
 * @param time The time to write.
 * @return The number of characters written (not counting the null terminator).
 */
size_t lf_readable_time(char* buffer, instant_t time) {
   105f4:	fb010113          	addi	sp,sp,-80
   105f8:	04112623          	sw	ra,76(sp)
   105fc:	04812423          	sw	s0,72(sp)
   10600:	05010413          	addi	s0,sp,80
   10604:	faa42e23          	sw	a0,-68(s0)
   10608:	fab42823          	sw	a1,-80(s0)
   1060c:	fac42a23          	sw	a2,-76(s0)
	char* original_buffer = buffer;
   10610:	fbc42783          	lw	a5,-68(s0)
   10614:	fef42223          	sw	a5,-28(s0)
	bool lead = false; // Set to true when first clause has been printed.
   10618:	fe0407a3          	sb	zero,-17(s0)
	if (time > WEEKS(1)) {
   1061c:	fb442703          	lw	a4,-76(s0)
   10620:	000227b7          	lui	a5,0x22
   10624:	60f78793          	addi	a5,a5,1551 # 2260f <__fputwc+0x107>
   10628:	02e7c063          	blt	a5,a4,10648 <lf_readable_time+0x54>
   1062c:	fb442703          	lw	a4,-76(s0)
   10630:	000227b7          	lui	a5,0x22
   10634:	60f78793          	addi	a5,a5,1551 # 2260f <__fputwc+0x107>
   10638:	0af71863          	bne	a4,a5,106e8 <lf_readable_time+0xf4>
   1063c:	fb042703          	lw	a4,-80(s0)
   10640:	f92907b7          	lui	a5,0xf9290
   10644:	0ae7f263          	bgeu	a5,a4,106e8 <lf_readable_time+0xf4>
		lead = true;
   10648:	00100793          	li	a5,1
   1064c:	fef407a3          	sb	a5,-17(s0)
		size_t printed = lf_comma_separated_time(buffer, time / WEEKS(1));
   10650:	fb042703          	lw	a4,-80(s0)
   10654:	fb442783          	lw	a5,-76(s0)
   10658:	000326b7          	lui	a3,0x32
   1065c:	f206a603          	lw	a2,-224(a3) # 31f20 <_exit+0xb3c>
   10660:	f246a683          	lw	a3,-220(a3)
   10664:	00070513          	mv	a0,a4
   10668:	00078593          	mv	a1,a5
   1066c:	475060ef          	jal	ra,172e0 <__divdi3>
   10670:	00050713          	mv	a4,a0
   10674:	00058793          	mv	a5,a1
   10678:	00070593          	mv	a1,a4
   1067c:	00078613          	mv	a2,a5
   10680:	fbc42503          	lw	a0,-68(s0)
   10684:	5c0000ef          	jal	ra,10c44 <lf_comma_separated_time>
   10688:	fea42023          	sw	a0,-32(s0)
		time = time % WEEKS(1);
   1068c:	fb042703          	lw	a4,-80(s0)
   10690:	fb442783          	lw	a5,-76(s0)
   10694:	000326b7          	lui	a3,0x32
   10698:	f206a603          	lw	a2,-224(a3) # 31f20 <_exit+0xb3c>
   1069c:	f246a683          	lw	a3,-220(a3)
   106a0:	00070513          	mv	a0,a4
   106a4:	00078593          	mv	a1,a5
   106a8:	2d4070ef          	jal	ra,1797c <__moddi3>
   106ac:	00050713          	mv	a4,a0
   106b0:	00058793          	mv	a5,a1
   106b4:	fae42823          	sw	a4,-80(s0)
   106b8:	faf42a23          	sw	a5,-76(s0)
		buffer += printed;
   106bc:	fbc42703          	lw	a4,-68(s0)
   106c0:	fe042783          	lw	a5,-32(s0)
   106c4:	00f707b3          	add	a5,a4,a5
   106c8:	faf42e23          	sw	a5,-68(s0)
		sprintf(buffer, " weeks");
   106cc:	000317b7          	lui	a5,0x31
   106d0:	41478593          	addi	a1,a5,1044 # 31414 <_exit+0x30>
   106d4:	fbc42503          	lw	a0,-68(s0)
   106d8:	770090ef          	jal	ra,19e48 <sprintf>
		buffer += 6;
   106dc:	fbc42783          	lw	a5,-68(s0)
   106e0:	00678793          	addi	a5,a5,6
   106e4:	faf42e23          	sw	a5,-68(s0)
	}
	if (time > DAYS(1)) {
   106e8:	fb442703          	lw	a4,-76(s0)
   106ec:	000057b7          	lui	a5,0x5
   106f0:	e9478793          	addi	a5,a5,-364 # 4e94 <exit-0xb1e0>
   106f4:	02e7c063          	blt	a5,a4,10714 <lf_readable_time+0x120>
   106f8:	fb442703          	lw	a4,-76(s0)
   106fc:	000057b7          	lui	a5,0x5
   10700:	e9478793          	addi	a5,a5,-364 # 4e94 <exit-0xb1e0>
   10704:	0cf71a63          	bne	a4,a5,107d8 <lf_readable_time+0x1e4>
   10708:	fb042703          	lw	a4,-80(s0)
   1070c:	914f07b7          	lui	a5,0x914f0
   10710:	0ce7f463          	bgeu	a5,a4,107d8 <lf_readable_time+0x1e4>
		if (lead == true) {
   10714:	fef44783          	lbu	a5,-17(s0)
   10718:	02078063          	beqz	a5,10738 <lf_readable_time+0x144>
			sprintf(buffer, ", ");
   1071c:	000317b7          	lui	a5,0x31
   10720:	41c78593          	addi	a1,a5,1052 # 3141c <_exit+0x38>
   10724:	fbc42503          	lw	a0,-68(s0)
   10728:	720090ef          	jal	ra,19e48 <sprintf>
			buffer += 2;
   1072c:	fbc42783          	lw	a5,-68(s0)
   10730:	00278793          	addi	a5,a5,2
   10734:	faf42e23          	sw	a5,-68(s0)
		}
		lead = true;
   10738:	00100793          	li	a5,1
   1073c:	fef407a3          	sb	a5,-17(s0)
		size_t printed = lf_comma_separated_time(buffer, time / DAYS(1));
   10740:	fb042703          	lw	a4,-80(s0)
   10744:	fb442783          	lw	a5,-76(s0)
   10748:	914f0637          	lui	a2,0x914f0
   1074c:	000056b7          	lui	a3,0x5
   10750:	e9468693          	addi	a3,a3,-364 # 4e94 <exit-0xb1e0>
   10754:	00070513          	mv	a0,a4
   10758:	00078593          	mv	a1,a5
   1075c:	385060ef          	jal	ra,172e0 <__divdi3>
   10760:	00050713          	mv	a4,a0
   10764:	00058793          	mv	a5,a1
   10768:	00070593          	mv	a1,a4
   1076c:	00078613          	mv	a2,a5
   10770:	fbc42503          	lw	a0,-68(s0)
   10774:	4d0000ef          	jal	ra,10c44 <lf_comma_separated_time>
   10778:	fca42e23          	sw	a0,-36(s0)
		time = time % DAYS(1);
   1077c:	fb042703          	lw	a4,-80(s0)
   10780:	fb442783          	lw	a5,-76(s0)
   10784:	914f0637          	lui	a2,0x914f0
   10788:	000056b7          	lui	a3,0x5
   1078c:	e9468693          	addi	a3,a3,-364 # 4e94 <exit-0xb1e0>
   10790:	00070513          	mv	a0,a4
   10794:	00078593          	mv	a1,a5
   10798:	1e4070ef          	jal	ra,1797c <__moddi3>
   1079c:	00050713          	mv	a4,a0
   107a0:	00058793          	mv	a5,a1
   107a4:	fae42823          	sw	a4,-80(s0)
   107a8:	faf42a23          	sw	a5,-76(s0)
		buffer += printed;
   107ac:	fbc42703          	lw	a4,-68(s0)
   107b0:	fdc42783          	lw	a5,-36(s0)
   107b4:	00f707b3          	add	a5,a4,a5
   107b8:	faf42e23          	sw	a5,-68(s0)
		sprintf(buffer, " days");
   107bc:	000317b7          	lui	a5,0x31
   107c0:	42078593          	addi	a1,a5,1056 # 31420 <_exit+0x3c>
   107c4:	fbc42503          	lw	a0,-68(s0)
   107c8:	680090ef          	jal	ra,19e48 <sprintf>
		buffer += 5;
   107cc:	fbc42783          	lw	a5,-68(s0)
   107d0:	00578793          	addi	a5,a5,5
   107d4:	faf42e23          	sw	a5,-68(s0)
	}
	if (time > HOURS(1)) {
   107d8:	fb442703          	lw	a4,-76(s0)
   107dc:	34600793          	li	a5,838
   107e0:	00e7ce63          	blt	a5,a4,107fc <lf_readable_time+0x208>
   107e4:	fb442703          	lw	a4,-76(s0)
   107e8:	34600793          	li	a5,838
   107ec:	0cf71663          	bne	a4,a5,108b8 <lf_readable_time+0x2c4>
   107f0:	fb042703          	lw	a4,-80(s0)
   107f4:	30b8a7b7          	lui	a5,0x30b8a
   107f8:	0ce7f063          	bgeu	a5,a4,108b8 <lf_readable_time+0x2c4>
		if (lead == true) {
   107fc:	fef44783          	lbu	a5,-17(s0)
   10800:	02078063          	beqz	a5,10820 <lf_readable_time+0x22c>
			sprintf(buffer, ", ");
   10804:	000317b7          	lui	a5,0x31
   10808:	41c78593          	addi	a1,a5,1052 # 3141c <_exit+0x38>
   1080c:	fbc42503          	lw	a0,-68(s0)
   10810:	638090ef          	jal	ra,19e48 <sprintf>
			buffer += 2;
   10814:	fbc42783          	lw	a5,-68(s0)
   10818:	00278793          	addi	a5,a5,2
   1081c:	faf42e23          	sw	a5,-68(s0)
		}
		lead = true;
   10820:	00100793          	li	a5,1
   10824:	fef407a3          	sb	a5,-17(s0)
		size_t printed = lf_comma_separated_time(buffer, time / HOURS(1));
   10828:	fb042703          	lw	a4,-80(s0)
   1082c:	fb442783          	lw	a5,-76(s0)
   10830:	30b8a637          	lui	a2,0x30b8a
   10834:	34600693          	li	a3,838
   10838:	00070513          	mv	a0,a4
   1083c:	00078593          	mv	a1,a5
   10840:	2a1060ef          	jal	ra,172e0 <__divdi3>
   10844:	00050713          	mv	a4,a0
   10848:	00058793          	mv	a5,a1
   1084c:	00070593          	mv	a1,a4
   10850:	00078613          	mv	a2,a5
   10854:	fbc42503          	lw	a0,-68(s0)
   10858:	3ec000ef          	jal	ra,10c44 <lf_comma_separated_time>
   1085c:	fca42c23          	sw	a0,-40(s0)
		time = time % HOURS(1);
   10860:	fb042703          	lw	a4,-80(s0)
   10864:	fb442783          	lw	a5,-76(s0)
   10868:	30b8a637          	lui	a2,0x30b8a
   1086c:	34600693          	li	a3,838
   10870:	00070513          	mv	a0,a4
   10874:	00078593          	mv	a1,a5
   10878:	104070ef          	jal	ra,1797c <__moddi3>
   1087c:	00050713          	mv	a4,a0
   10880:	00058793          	mv	a5,a1
   10884:	fae42823          	sw	a4,-80(s0)
   10888:	faf42a23          	sw	a5,-76(s0)
		buffer += printed;
   1088c:	fbc42703          	lw	a4,-68(s0)
   10890:	fd842783          	lw	a5,-40(s0)
   10894:	00f707b3          	add	a5,a4,a5
   10898:	faf42e23          	sw	a5,-68(s0)
		sprintf(buffer, " hours");
   1089c:	000317b7          	lui	a5,0x31
   108a0:	42878593          	addi	a1,a5,1064 # 31428 <_exit+0x44>
   108a4:	fbc42503          	lw	a0,-68(s0)
   108a8:	5a0090ef          	jal	ra,19e48 <sprintf>
		buffer += 6;
   108ac:	fbc42783          	lw	a5,-68(s0)
   108b0:	00678793          	addi	a5,a5,6
   108b4:	faf42e23          	sw	a5,-68(s0)
	}
	if (time > MINUTES(1)) {
   108b8:	fb442703          	lw	a4,-76(s0)
   108bc:	00d00793          	li	a5,13
   108c0:	02e7c063          	blt	a5,a4,108e0 <lf_readable_time+0x2ec>
   108c4:	fb442703          	lw	a4,-76(s0)
   108c8:	00d00793          	li	a5,13
   108cc:	0cf71c63          	bne	a4,a5,109a4 <lf_readable_time+0x3b0>
   108d0:	fb042703          	lw	a4,-80(s0)
   108d4:	f84767b7          	lui	a5,0xf8476
   108d8:	80078793          	addi	a5,a5,-2048 # f8475800 <__BSS_END__+0xf8440850>
   108dc:	0ce7f463          	bgeu	a5,a4,109a4 <lf_readable_time+0x3b0>
		if (lead == true) {
   108e0:	fef44783          	lbu	a5,-17(s0)
   108e4:	02078063          	beqz	a5,10904 <lf_readable_time+0x310>
			sprintf(buffer, ", ");
   108e8:	000317b7          	lui	a5,0x31
   108ec:	41c78593          	addi	a1,a5,1052 # 3141c <_exit+0x38>
   108f0:	fbc42503          	lw	a0,-68(s0)
   108f4:	554090ef          	jal	ra,19e48 <sprintf>
			buffer += 2;
   108f8:	fbc42783          	lw	a5,-68(s0)
   108fc:	00278793          	addi	a5,a5,2
   10900:	faf42e23          	sw	a5,-68(s0)
		}
		lead = true;
   10904:	00100793          	li	a5,1
   10908:	fef407a3          	sb	a5,-17(s0)
		size_t printed = lf_comma_separated_time(buffer, time / MINUTES(1));
   1090c:	fb042703          	lw	a4,-80(s0)
   10910:	fb442783          	lw	a5,-76(s0)
   10914:	f8476637          	lui	a2,0xf8476
   10918:	80060613          	addi	a2,a2,-2048 # f8475800 <__BSS_END__+0xf8440850>
   1091c:	00d00693          	li	a3,13
   10920:	00070513          	mv	a0,a4
   10924:	00078593          	mv	a1,a5
   10928:	1b9060ef          	jal	ra,172e0 <__divdi3>
   1092c:	00050713          	mv	a4,a0
   10930:	00058793          	mv	a5,a1
   10934:	00070593          	mv	a1,a4
   10938:	00078613          	mv	a2,a5
   1093c:	fbc42503          	lw	a0,-68(s0)
   10940:	304000ef          	jal	ra,10c44 <lf_comma_separated_time>
   10944:	fca42a23          	sw	a0,-44(s0)
		time = time % MINUTES(1);
   10948:	fb042703          	lw	a4,-80(s0)
   1094c:	fb442783          	lw	a5,-76(s0)
   10950:	f8476637          	lui	a2,0xf8476
   10954:	80060613          	addi	a2,a2,-2048 # f8475800 <__BSS_END__+0xf8440850>
   10958:	00d00693          	li	a3,13
   1095c:	00070513          	mv	a0,a4
   10960:	00078593          	mv	a1,a5
   10964:	018070ef          	jal	ra,1797c <__moddi3>
   10968:	00050713          	mv	a4,a0
   1096c:	00058793          	mv	a5,a1
   10970:	fae42823          	sw	a4,-80(s0)
   10974:	faf42a23          	sw	a5,-76(s0)
		buffer += printed;
   10978:	fbc42703          	lw	a4,-68(s0)
   1097c:	fd442783          	lw	a5,-44(s0)
   10980:	00f707b3          	add	a5,a4,a5
   10984:	faf42e23          	sw	a5,-68(s0)
		sprintf(buffer, " minutes");
   10988:	000317b7          	lui	a5,0x31
   1098c:	43078593          	addi	a1,a5,1072 # 31430 <_exit+0x4c>
   10990:	fbc42503          	lw	a0,-68(s0)
   10994:	4b4090ef          	jal	ra,19e48 <sprintf>
		buffer += 8;
   10998:	fbc42783          	lw	a5,-68(s0)
   1099c:	00878793          	addi	a5,a5,8
   109a0:	faf42e23          	sw	a5,-68(s0)
	}
	if (time > SECONDS(1)) {
   109a4:	fb442783          	lw	a5,-76(s0)
   109a8:	00f04e63          	bgtz	a5,109c4 <lf_readable_time+0x3d0>
   109ac:	fb442783          	lw	a5,-76(s0)
   109b0:	0c079c63          	bnez	a5,10a88 <lf_readable_time+0x494>
   109b4:	fb042703          	lw	a4,-80(s0)
   109b8:	3b9ad7b7          	lui	a5,0x3b9ad
   109bc:	a0078793          	addi	a5,a5,-1536 # 3b9aca00 <__BSS_END__+0x3b977a50>
   109c0:	0ce7f463          	bgeu	a5,a4,10a88 <lf_readable_time+0x494>
		if (lead == true) {
   109c4:	fef44783          	lbu	a5,-17(s0)
   109c8:	02078063          	beqz	a5,109e8 <lf_readable_time+0x3f4>
			sprintf(buffer, ", ");
   109cc:	000317b7          	lui	a5,0x31
   109d0:	41c78593          	addi	a1,a5,1052 # 3141c <_exit+0x38>
   109d4:	fbc42503          	lw	a0,-68(s0)
   109d8:	470090ef          	jal	ra,19e48 <sprintf>
			buffer += 2;
   109dc:	fbc42783          	lw	a5,-68(s0)
   109e0:	00278793          	addi	a5,a5,2
   109e4:	faf42e23          	sw	a5,-68(s0)
		}
		lead = true;
   109e8:	00100793          	li	a5,1
   109ec:	fef407a3          	sb	a5,-17(s0)
		size_t printed = lf_comma_separated_time(buffer, time / SECONDS(1));
   109f0:	fb042703          	lw	a4,-80(s0)
   109f4:	fb442783          	lw	a5,-76(s0)
   109f8:	3b9ad637          	lui	a2,0x3b9ad
   109fc:	a0060613          	addi	a2,a2,-1536 # 3b9aca00 <__BSS_END__+0x3b977a50>
   10a00:	00000693          	li	a3,0
   10a04:	00070513          	mv	a0,a4
   10a08:	00078593          	mv	a1,a5
   10a0c:	0d5060ef          	jal	ra,172e0 <__divdi3>
   10a10:	00050713          	mv	a4,a0
   10a14:	00058793          	mv	a5,a1
   10a18:	00070593          	mv	a1,a4
   10a1c:	00078613          	mv	a2,a5
   10a20:	fbc42503          	lw	a0,-68(s0)
   10a24:	220000ef          	jal	ra,10c44 <lf_comma_separated_time>
   10a28:	fca42823          	sw	a0,-48(s0)
		time = time % SECONDS(1);
   10a2c:	fb042703          	lw	a4,-80(s0)
   10a30:	fb442783          	lw	a5,-76(s0)
   10a34:	3b9ad637          	lui	a2,0x3b9ad
   10a38:	a0060613          	addi	a2,a2,-1536 # 3b9aca00 <__BSS_END__+0x3b977a50>
   10a3c:	00000693          	li	a3,0
   10a40:	00070513          	mv	a0,a4
   10a44:	00078593          	mv	a1,a5
   10a48:	735060ef          	jal	ra,1797c <__moddi3>
   10a4c:	00050713          	mv	a4,a0
   10a50:	00058793          	mv	a5,a1
   10a54:	fae42823          	sw	a4,-80(s0)
   10a58:	faf42a23          	sw	a5,-76(s0)
		buffer += printed;
   10a5c:	fbc42703          	lw	a4,-68(s0)
   10a60:	fd042783          	lw	a5,-48(s0)
   10a64:	00f707b3          	add	a5,a4,a5
   10a68:	faf42e23          	sw	a5,-68(s0)
		sprintf(buffer, " seconds");
   10a6c:	000317b7          	lui	a5,0x31
   10a70:	43c78593          	addi	a1,a5,1084 # 3143c <_exit+0x58>
   10a74:	fbc42503          	lw	a0,-68(s0)
   10a78:	3d0090ef          	jal	ra,19e48 <sprintf>
		buffer += 8;
   10a7c:	fbc42783          	lw	a5,-68(s0)
   10a80:	00878793          	addi	a5,a5,8
   10a84:	faf42e23          	sw	a5,-68(s0)
	}
	if (time > (instant_t)0) {
   10a88:	fb442783          	lw	a5,-76(s0)
   10a8c:	00f04a63          	bgtz	a5,10aa0 <lf_readable_time+0x4ac>
   10a90:	fb442783          	lw	a5,-76(s0)
   10a94:	18079063          	bnez	a5,10c14 <lf_readable_time+0x620>
   10a98:	fb042783          	lw	a5,-80(s0)
   10a9c:	16078c63          	beqz	a5,10c14 <lf_readable_time+0x620>
		if (lead == true) {
   10aa0:	fef44783          	lbu	a5,-17(s0)
   10aa4:	02078063          	beqz	a5,10ac4 <lf_readable_time+0x4d0>
			sprintf(buffer, ", ");
   10aa8:	000317b7          	lui	a5,0x31
   10aac:	41c78593          	addi	a1,a5,1052 # 3141c <_exit+0x38>
   10ab0:	fbc42503          	lw	a0,-68(s0)
   10ab4:	394090ef          	jal	ra,19e48 <sprintf>
			buffer += 2;
   10ab8:	fbc42783          	lw	a5,-68(s0)
   10abc:	00278793          	addi	a5,a5,2
   10ac0:	faf42e23          	sw	a5,-68(s0)
		}
		char* units = "nanoseconds";
   10ac4:	000317b7          	lui	a5,0x31
   10ac8:	44878793          	addi	a5,a5,1096 # 31448 <_exit+0x64>
   10acc:	fef42423          	sw	a5,-24(s0)
		if (time % MSEC(1) == (instant_t) 0) {
   10ad0:	fb042703          	lw	a4,-80(s0)
   10ad4:	fb442783          	lw	a5,-76(s0)
   10ad8:	000f4637          	lui	a2,0xf4
   10adc:	24060613          	addi	a2,a2,576 # f4240 <__BSS_END__+0xbf290>
   10ae0:	00000693          	li	a3,0
   10ae4:	00070513          	mv	a0,a4
   10ae8:	00078593          	mv	a1,a5
   10aec:	691060ef          	jal	ra,1797c <__moddi3>
   10af0:	00050713          	mv	a4,a0
   10af4:	00058793          	mv	a5,a1
   10af8:	00070613          	mv	a2,a4
   10afc:	00078693          	mv	a3,a5
   10b00:	00060793          	mv	a5,a2
   10b04:	00d7e7b3          	or	a5,a5,a3
   10b08:	04079263          	bnez	a5,10b4c <lf_readable_time+0x558>
			units = "milliseconds";
   10b0c:	000317b7          	lui	a5,0x31
   10b10:	45478793          	addi	a5,a5,1108 # 31454 <_exit+0x70>
   10b14:	fef42423          	sw	a5,-24(s0)
			time = time % MSEC(1);
   10b18:	fb042703          	lw	a4,-80(s0)
   10b1c:	fb442783          	lw	a5,-76(s0)
   10b20:	000f4637          	lui	a2,0xf4
   10b24:	24060613          	addi	a2,a2,576 # f4240 <__BSS_END__+0xbf290>
   10b28:	00000693          	li	a3,0
   10b2c:	00070513          	mv	a0,a4
   10b30:	00078593          	mv	a1,a5
   10b34:	649060ef          	jal	ra,1797c <__moddi3>
   10b38:	00050713          	mv	a4,a0
   10b3c:	00058793          	mv	a5,a1
   10b40:	fae42823          	sw	a4,-80(s0)
   10b44:	faf42a23          	sw	a5,-76(s0)
   10b48:	0740006f          	j	10bbc <lf_readable_time+0x5c8>
		} else if (time % USEC(1) == (instant_t) 0) {
   10b4c:	fb042703          	lw	a4,-80(s0)
   10b50:	fb442783          	lw	a5,-76(s0)
   10b54:	3e800613          	li	a2,1000
   10b58:	00000693          	li	a3,0
   10b5c:	00070513          	mv	a0,a4
   10b60:	00078593          	mv	a1,a5
   10b64:	619060ef          	jal	ra,1797c <__moddi3>
   10b68:	00050713          	mv	a4,a0
   10b6c:	00058793          	mv	a5,a1
   10b70:	00070613          	mv	a2,a4
   10b74:	00078693          	mv	a3,a5
   10b78:	00060793          	mv	a5,a2
   10b7c:	00d7e7b3          	or	a5,a5,a3
   10b80:	02079e63          	bnez	a5,10bbc <lf_readable_time+0x5c8>
			units = "microseconds";
   10b84:	000317b7          	lui	a5,0x31
   10b88:	46478793          	addi	a5,a5,1124 # 31464 <_exit+0x80>
   10b8c:	fef42423          	sw	a5,-24(s0)
			time = time % USEC(1);
   10b90:	fb042703          	lw	a4,-80(s0)
   10b94:	fb442783          	lw	a5,-76(s0)
   10b98:	3e800613          	li	a2,1000
   10b9c:	00000693          	li	a3,0
   10ba0:	00070513          	mv	a0,a4
   10ba4:	00078593          	mv	a1,a5
   10ba8:	5d5060ef          	jal	ra,1797c <__moddi3>
   10bac:	00050713          	mv	a4,a0
   10bb0:	00058793          	mv	a5,a1
   10bb4:	fae42823          	sw	a4,-80(s0)
   10bb8:	faf42a23          	sw	a5,-76(s0)
		}
		size_t printed = lf_comma_separated_time(buffer, time);
   10bbc:	fb042583          	lw	a1,-80(s0)
   10bc0:	fb442603          	lw	a2,-76(s0)
   10bc4:	fbc42503          	lw	a0,-68(s0)
   10bc8:	07c000ef          	jal	ra,10c44 <lf_comma_separated_time>
   10bcc:	fca42623          	sw	a0,-52(s0)
		buffer += printed;
   10bd0:	fbc42703          	lw	a4,-68(s0)
   10bd4:	fcc42783          	lw	a5,-52(s0)
   10bd8:	00f707b3          	add	a5,a4,a5
   10bdc:	faf42e23          	sw	a5,-68(s0)
		sprintf(buffer, " %s", units);
   10be0:	fe842603          	lw	a2,-24(s0)
   10be4:	000317b7          	lui	a5,0x31
   10be8:	47478593          	addi	a1,a5,1140 # 31474 <_exit+0x90>
   10bec:	fbc42503          	lw	a0,-68(s0)
   10bf0:	258090ef          	jal	ra,19e48 <sprintf>
		buffer += strlen(units) + 1;
   10bf4:	fe842503          	lw	a0,-24(s0)
   10bf8:	444090ef          	jal	ra,1a03c <strlen>
   10bfc:	00050793          	mv	a5,a0
   10c00:	00178793          	addi	a5,a5,1
   10c04:	fbc42703          	lw	a4,-68(s0)
   10c08:	00f707b3          	add	a5,a4,a5
   10c0c:	faf42e23          	sw	a5,-68(s0)
   10c10:	0140006f          	j	10c24 <lf_readable_time+0x630>
	} else {
		sprintf(buffer, "0");
   10c14:	000317b7          	lui	a5,0x31
   10c18:	47878593          	addi	a1,a5,1144 # 31478 <_exit+0x94>
   10c1c:	fbc42503          	lw	a0,-68(s0)
   10c20:	228090ef          	jal	ra,19e48 <sprintf>
	}
	return (buffer - original_buffer);
   10c24:	fbc42703          	lw	a4,-68(s0)
   10c28:	fe442783          	lw	a5,-28(s0)
   10c2c:	40f707b3          	sub	a5,a4,a5
}
   10c30:	00078513          	mv	a0,a5
   10c34:	04c12083          	lw	ra,76(sp)
   10c38:	04812403          	lw	s0,72(sp)
   10c3c:	05010113          	addi	sp,sp,80
   10c40:	00008067          	ret

00010c44 <lf_comma_separated_time>:
 * @param buffer A buffer long enough to contain a string like "-9,223,372,036,854,775,807".
 * @param time A time value.
 * @return The number of characters written into the buffer (not including
 *  the null terminator).
 */
size_t lf_comma_separated_time(char* buffer, instant_t time) {
   10c44:	f9010113          	addi	sp,sp,-112
   10c48:	06112623          	sw	ra,108(sp)
   10c4c:	06812423          	sw	s0,104(sp)
   10c50:	07010413          	addi	s0,sp,112
   10c54:	f8a42e23          	sw	a0,-100(s0)
   10c58:	f8b42823          	sw	a1,-112(s0)
   10c5c:	f8c42a23          	sw	a2,-108(s0)
	size_t result = 0; // The number of characters printed.
   10c60:	fe042623          	sw	zero,-20(s0)
    // If the number is zero, print it and return.
    if (time == (instant_t)0) {
   10c64:	f9042783          	lw	a5,-112(s0)
   10c68:	f9442703          	lw	a4,-108(s0)
   10c6c:	00e7e7b3          	or	a5,a5,a4
   10c70:	00079e63          	bnez	a5,10c8c <lf_comma_separated_time+0x48>
        sprintf(buffer, "0");
   10c74:	000317b7          	lui	a5,0x31
   10c78:	47878593          	addi	a1,a5,1144 # 31478 <_exit+0x94>
   10c7c:	f9c42503          	lw	a0,-100(s0)
   10c80:	1c8090ef          	jal	ra,19e48 <sprintf>
        return 1;
   10c84:	00100793          	li	a5,1
   10c88:	2140006f          	j	10e9c <lf_comma_separated_time+0x258>
    }
    // If the number is negative, print a minus sign.
    if (time < (instant_t)0) {
   10c8c:	f9442783          	lw	a5,-108(s0)
   10c90:	0207d663          	bgez	a5,10cbc <lf_comma_separated_time+0x78>
    	sprintf(buffer, "-");
   10c94:	000317b7          	lui	a5,0x31
   10c98:	47c78593          	addi	a1,a5,1148 # 3147c <_exit+0x98>
   10c9c:	f9c42503          	lw	a0,-100(s0)
   10ca0:	1a8090ef          	jal	ra,19e48 <sprintf>
    	buffer++;
   10ca4:	f9c42783          	lw	a5,-100(s0)
   10ca8:	00178793          	addi	a5,a5,1
   10cac:	f8f42e23          	sw	a5,-100(s0)
    	result++;
   10cb0:	fec42783          	lw	a5,-20(s0)
   10cb4:	00178793          	addi	a5,a5,1
   10cb8:	fef42623          	sw	a5,-20(s0)
    }
    int count = 0;
   10cbc:	fe042423          	sw	zero,-24(s0)
    // Assume the time value is no larger than 64 bits.
    instant_t clauses[7];
    while (time > (instant_t)0) {
   10cc0:	0580006f          	j	10d18 <lf_comma_separated_time+0xd4>
        clauses[count++] = time;
   10cc4:	fe842783          	lw	a5,-24(s0)
   10cc8:	00178713          	addi	a4,a5,1
   10ccc:	fee42423          	sw	a4,-24(s0)
   10cd0:	00379793          	slli	a5,a5,0x3
   10cd4:	ff040713          	addi	a4,s0,-16
   10cd8:	00f707b3          	add	a5,a4,a5
   10cdc:	f9042603          	lw	a2,-112(s0)
   10ce0:	f9442683          	lw	a3,-108(s0)
   10ce4:	fac7ac23          	sw	a2,-72(a5)
   10ce8:	fad7ae23          	sw	a3,-68(a5)
        time = time/1000;
   10cec:	f9042703          	lw	a4,-112(s0)
   10cf0:	f9442783          	lw	a5,-108(s0)
   10cf4:	3e800613          	li	a2,1000
   10cf8:	00000693          	li	a3,0
   10cfc:	00070513          	mv	a0,a4
   10d00:	00078593          	mv	a1,a5
   10d04:	5dc060ef          	jal	ra,172e0 <__divdi3>
   10d08:	00050713          	mv	a4,a0
   10d0c:	00058793          	mv	a5,a1
   10d10:	f8e42823          	sw	a4,-112(s0)
   10d14:	f8f42a23          	sw	a5,-108(s0)
    while (time > (instant_t)0) {
   10d18:	f9442783          	lw	a5,-108(s0)
   10d1c:	faf044e3          	bgtz	a5,10cc4 <lf_comma_separated_time+0x80>
   10d20:	f9442783          	lw	a5,-108(s0)
   10d24:	00079663          	bnez	a5,10d30 <lf_comma_separated_time+0xec>
   10d28:	f9042783          	lw	a5,-112(s0)
   10d2c:	f8079ce3          	bnez	a5,10cc4 <lf_comma_separated_time+0x80>
    }
    // Highest order clause should not be filled with zeros.
    instant_t to_print = clauses[--count] % 1000;
   10d30:	fe842783          	lw	a5,-24(s0)
   10d34:	fff78793          	addi	a5,a5,-1
   10d38:	fef42423          	sw	a5,-24(s0)
   10d3c:	fe842783          	lw	a5,-24(s0)
   10d40:	00379793          	slli	a5,a5,0x3
   10d44:	ff040713          	addi	a4,s0,-16
   10d48:	00f707b3          	add	a5,a4,a5
   10d4c:	fb87a703          	lw	a4,-72(a5)
   10d50:	fbc7a783          	lw	a5,-68(a5)
   10d54:	3e800613          	li	a2,1000
   10d58:	00000693          	li	a3,0
   10d5c:	00070513          	mv	a0,a4
   10d60:	00078593          	mv	a1,a5
   10d64:	419060ef          	jal	ra,1797c <__moddi3>
   10d68:	00050713          	mv	a4,a0
   10d6c:	00058793          	mv	a5,a1
   10d70:	fee42023          	sw	a4,-32(s0)
   10d74:	fef42223          	sw	a5,-28(s0)
    sprintf(buffer, "%lld", (long long)to_print);
   10d78:	fe042603          	lw	a2,-32(s0)
   10d7c:	fe442683          	lw	a3,-28(s0)
   10d80:	000317b7          	lui	a5,0x31
   10d84:	48078593          	addi	a1,a5,1152 # 31480 <_exit+0x9c>
   10d88:	f9c42503          	lw	a0,-100(s0)
   10d8c:	0bc090ef          	jal	ra,19e48 <sprintf>
    if (to_print >= 100LL) {
   10d90:	fe442783          	lw	a5,-28(s0)
   10d94:	00f04c63          	bgtz	a5,10dac <lf_comma_separated_time+0x168>
   10d98:	fe442783          	lw	a5,-28(s0)
   10d9c:	02079663          	bnez	a5,10dc8 <lf_comma_separated_time+0x184>
   10da0:	fe042703          	lw	a4,-32(s0)
   10da4:	06300793          	li	a5,99
   10da8:	02e7f063          	bgeu	a5,a4,10dc8 <lf_comma_separated_time+0x184>
        buffer += 3;
   10dac:	f9c42783          	lw	a5,-100(s0)
   10db0:	00378793          	addi	a5,a5,3
   10db4:	f8f42e23          	sw	a5,-100(s0)
        result += 3;
   10db8:	fec42783          	lw	a5,-20(s0)
   10dbc:	00378793          	addi	a5,a5,3
   10dc0:	fef42623          	sw	a5,-20(s0)
   10dc4:	0c40006f          	j	10e88 <lf_comma_separated_time+0x244>
    } else if (to_print >= 10LL) {
   10dc8:	fe442783          	lw	a5,-28(s0)
   10dcc:	00f04c63          	bgtz	a5,10de4 <lf_comma_separated_time+0x1a0>
   10dd0:	fe442783          	lw	a5,-28(s0)
   10dd4:	02079663          	bnez	a5,10e00 <lf_comma_separated_time+0x1bc>
   10dd8:	fe042703          	lw	a4,-32(s0)
   10ddc:	00900793          	li	a5,9
   10de0:	02e7f063          	bgeu	a5,a4,10e00 <lf_comma_separated_time+0x1bc>
        buffer += 2;
   10de4:	f9c42783          	lw	a5,-100(s0)
   10de8:	00278793          	addi	a5,a5,2
   10dec:	f8f42e23          	sw	a5,-100(s0)
        result += 2;
   10df0:	fec42783          	lw	a5,-20(s0)
   10df4:	00278793          	addi	a5,a5,2
   10df8:	fef42623          	sw	a5,-20(s0)
   10dfc:	08c0006f          	j	10e88 <lf_comma_separated_time+0x244>
    } else {
        buffer += 1;
   10e00:	f9c42783          	lw	a5,-100(s0)
   10e04:	00178793          	addi	a5,a5,1
   10e08:	f8f42e23          	sw	a5,-100(s0)
        result += 1;
   10e0c:	fec42783          	lw	a5,-20(s0)
   10e10:	00178793          	addi	a5,a5,1
   10e14:	fef42623          	sw	a5,-20(s0)
    }
    while (count-- > 0) {
   10e18:	0700006f          	j	10e88 <lf_comma_separated_time+0x244>
        to_print = clauses[count] % 1000LL;
   10e1c:	fe842783          	lw	a5,-24(s0)
   10e20:	00379793          	slli	a5,a5,0x3
   10e24:	ff040713          	addi	a4,s0,-16
   10e28:	00f707b3          	add	a5,a4,a5
   10e2c:	fb87a703          	lw	a4,-72(a5)
   10e30:	fbc7a783          	lw	a5,-68(a5)
   10e34:	3e800613          	li	a2,1000
   10e38:	00000693          	li	a3,0
   10e3c:	00070513          	mv	a0,a4
   10e40:	00078593          	mv	a1,a5
   10e44:	339060ef          	jal	ra,1797c <__moddi3>
   10e48:	00050713          	mv	a4,a0
   10e4c:	00058793          	mv	a5,a1
   10e50:	fee42023          	sw	a4,-32(s0)
   10e54:	fef42223          	sw	a5,-28(s0)
        sprintf(buffer, ",%03lld", (long long)to_print);
   10e58:	fe042603          	lw	a2,-32(s0)
   10e5c:	fe442683          	lw	a3,-28(s0)
   10e60:	000317b7          	lui	a5,0x31
   10e64:	48878593          	addi	a1,a5,1160 # 31488 <_exit+0xa4>
   10e68:	f9c42503          	lw	a0,-100(s0)
   10e6c:	7dd080ef          	jal	ra,19e48 <sprintf>
        buffer += 4;
   10e70:	f9c42783          	lw	a5,-100(s0)
   10e74:	00478793          	addi	a5,a5,4
   10e78:	f8f42e23          	sw	a5,-100(s0)
        result += 4;
   10e7c:	fec42783          	lw	a5,-20(s0)
   10e80:	00478793          	addi	a5,a5,4
   10e84:	fef42623          	sw	a5,-20(s0)
    while (count-- > 0) {
   10e88:	fe842783          	lw	a5,-24(s0)
   10e8c:	fff78713          	addi	a4,a5,-1
   10e90:	fee42423          	sw	a4,-24(s0)
   10e94:	f8f044e3          	bgtz	a5,10e1c <lf_comma_separated_time+0x1d8>
    }
    return result;
   10e98:	fec42783          	lw	a5,-20(s0)
}
   10e9c:	00078513          	mv	a0,a5
   10ea0:	06c12083          	lw	ra,108(sp)
   10ea4:	06812403          	lw	s0,104(sp)
   10ea8:	07010113          	addi	sp,sp,112
   10eac:	00008067          	ret

00010eb0 <convert_volatile_tag_to_nonvolatile>:
#else
/**
 * @note This is an undefined behavior in C and should
 *  be used with utmost caution. See Section 6.7.2 of the C99 standard.
 */
tag_t convert_volatile_tag_to_nonvolatile(tag_t volatile vtag) {
   10eb0:	fe010113          	addi	sp,sp,-32
   10eb4:	00812e23          	sw	s0,28(sp)
   10eb8:	00912c23          	sw	s1,24(sp)
   10ebc:	02010413          	addi	s0,sp,32
   10ec0:	fea42623          	sw	a0,-20(s0)
   10ec4:	00058493          	mv	s1,a1
    return vtag;
   10ec8:	fec42783          	lw	a5,-20(s0)
   10ecc:	0004a583          	lw	a1,0(s1)
   10ed0:	0044a603          	lw	a2,4(s1)
   10ed4:	0084a683          	lw	a3,8(s1)
   10ed8:	00c4a703          	lw	a4,12(s1)
   10edc:	00b7a023          	sw	a1,0(a5)
   10ee0:	00c7a223          	sw	a2,4(a5)
   10ee4:	00d7a423          	sw	a3,8(a5)
   10ee8:	00e7a623          	sw	a4,12(a5)
}
   10eec:	fec42503          	lw	a0,-20(s0)
   10ef0:	01c12403          	lw	s0,28(sp)
   10ef4:	01812483          	lw	s1,24(sp)
   10ef8:	02010113          	addi	sp,sp,32
   10efc:	00008067          	ret

00010f00 <find_equal>:

/**
 * Find an element in the queue that matches the given element up to
 * and including the given maximum priority.
 */ 
void* find_equal(pqueue_t *q, void *e, int pos, pqueue_pri_t max) {
   10f00:	fc010113          	addi	sp,sp,-64
   10f04:	02112e23          	sw	ra,60(sp)
   10f08:	02812c23          	sw	s0,56(sp)
   10f0c:	02912a23          	sw	s1,52(sp)
   10f10:	04010413          	addi	s0,sp,64
   10f14:	fca42e23          	sw	a0,-36(s0)
   10f18:	fcb42c23          	sw	a1,-40(s0)
   10f1c:	fcc42a23          	sw	a2,-44(s0)
   10f20:	fcd42423          	sw	a3,-56(s0)
   10f24:	fce42623          	sw	a4,-52(s0)
    if (pos < 0) {
   10f28:	fd442783          	lw	a5,-44(s0)
   10f2c:	0007d863          	bgez	a5,10f3c <find_equal+0x3c>
        error_print_and_exit("find_equal() called with a negative pos index.");
   10f30:	000317b7          	lui	a5,0x31
   10f34:	49078513          	addi	a0,a5,1168 # 31490 <_exit+0xac>
   10f38:	3bc010ef          	jal	ra,122f4 <error_print_and_exit>
    }

    // Stop the recursion when we've reached the end of the 
    // queue. This has to be done before accessing the queue
    // to avoid segmentation fault.
    if (!q || (size_t)pos >= q->size) {
   10f3c:	fdc42783          	lw	a5,-36(s0)
   10f40:	00078a63          	beqz	a5,10f54 <find_equal+0x54>
   10f44:	fdc42783          	lw	a5,-36(s0)
   10f48:	0007a703          	lw	a4,0(a5)
   10f4c:	fd442783          	lw	a5,-44(s0)
   10f50:	00e7e663          	bltu	a5,a4,10f5c <find_equal+0x5c>
        return NULL;
   10f54:	00000793          	li	a5,0
   10f58:	0ec0006f          	j	11044 <find_equal+0x144>
    }

    void* rval;
    void* curr = q->d[pos];
   10f5c:	fdc42783          	lw	a5,-36(s0)
   10f60:	0247a703          	lw	a4,36(a5)
   10f64:	fd442783          	lw	a5,-44(s0)
   10f68:	00279793          	slli	a5,a5,0x2
   10f6c:	00f707b3          	add	a5,a4,a5
   10f70:	0007a783          	lw	a5,0(a5)
   10f74:	fef42623          	sw	a5,-20(s0)

    // Stop the recursion when we've surpassed the maximum priority.
    if (!curr || q->cmppri(q->getpri(curr), max)) {
   10f78:	fec42783          	lw	a5,-20(s0)
   10f7c:	04078063          	beqz	a5,10fbc <find_equal+0xbc>
   10f80:	fdc42783          	lw	a5,-36(s0)
   10f84:	00c7a483          	lw	s1,12(a5)
   10f88:	fdc42783          	lw	a5,-36(s0)
   10f8c:	0107a783          	lw	a5,16(a5)
   10f90:	fec42503          	lw	a0,-20(s0)
   10f94:	000780e7          	jalr	a5
   10f98:	00050713          	mv	a4,a0
   10f9c:	00058793          	mv	a5,a1
   10fa0:	fc842603          	lw	a2,-56(s0)
   10fa4:	fcc42683          	lw	a3,-52(s0)
   10fa8:	00070513          	mv	a0,a4
   10fac:	00078593          	mv	a1,a5
   10fb0:	000480e7          	jalr	s1
   10fb4:	00050793          	mv	a5,a0
   10fb8:	00078663          	beqz	a5,10fc4 <find_equal+0xc4>
        return NULL;
   10fbc:	00000793          	li	a5,0
   10fc0:	0840006f          	j	11044 <find_equal+0x144>
    }
    
    if (q->eqelem(curr, e)) {
   10fc4:	fdc42783          	lw	a5,-36(s0)
   10fc8:	01c7a783          	lw	a5,28(a5)
   10fcc:	fd842583          	lw	a1,-40(s0)
   10fd0:	fec42503          	lw	a0,-20(s0)
   10fd4:	000780e7          	jalr	a5
   10fd8:	00050793          	mv	a5,a0
   10fdc:	00078663          	beqz	a5,10fe8 <find_equal+0xe8>
        return curr;
   10fe0:	fec42783          	lw	a5,-20(s0)
   10fe4:	0600006f          	j	11044 <find_equal+0x144>
    } else {
        rval = find_equal(q, e, LF_LEFT(pos), max);
   10fe8:	fd442783          	lw	a5,-44(s0)
   10fec:	00179793          	slli	a5,a5,0x1
   10ff0:	fc842683          	lw	a3,-56(s0)
   10ff4:	fcc42703          	lw	a4,-52(s0)
   10ff8:	00078613          	mv	a2,a5
   10ffc:	fd842583          	lw	a1,-40(s0)
   11000:	fdc42503          	lw	a0,-36(s0)
   11004:	efdff0ef          	jal	ra,10f00 <find_equal>
   11008:	fea42423          	sw	a0,-24(s0)
        if (rval) 
   1100c:	fe842783          	lw	a5,-24(s0)
   11010:	00078663          	beqz	a5,1101c <find_equal+0x11c>
            return rval;
   11014:	fe842783          	lw	a5,-24(s0)
   11018:	02c0006f          	j	11044 <find_equal+0x144>
        else
            return find_equal(q, e, LF_RIGHT(pos), max);
   1101c:	fd442783          	lw	a5,-44(s0)
   11020:	00179793          	slli	a5,a5,0x1
   11024:	00178793          	addi	a5,a5,1
   11028:	fc842683          	lw	a3,-56(s0)
   1102c:	fcc42703          	lw	a4,-52(s0)
   11030:	00078613          	mv	a2,a5
   11034:	fd842583          	lw	a1,-40(s0)
   11038:	fdc42503          	lw	a0,-36(s0)
   1103c:	ec5ff0ef          	jal	ra,10f00 <find_equal>
   11040:	00050793          	mv	a5,a0
    }
    return NULL;
}
   11044:	00078513          	mv	a0,a5
   11048:	03c12083          	lw	ra,60(sp)
   1104c:	03812403          	lw	s0,56(sp)
   11050:	03412483          	lw	s1,52(sp)
   11054:	04010113          	addi	sp,sp,64
   11058:	00008067          	ret

0001105c <find_equal_same_priority>:
/**
 * Find an element in the queue that matches the given element up to
 * but not including the given maximum priority. The matching element
 * has to _also_ have the same priority.
 */ 
void* find_equal_same_priority(pqueue_t *q, void *e, int pos) {
   1105c:	fc010113          	addi	sp,sp,-64
   11060:	02112e23          	sw	ra,60(sp)
   11064:	02812c23          	sw	s0,56(sp)
   11068:	02912a23          	sw	s1,52(sp)
   1106c:	03212823          	sw	s2,48(sp)
   11070:	03312623          	sw	s3,44(sp)
   11074:	04010413          	addi	s0,sp,64
   11078:	fca42623          	sw	a0,-52(s0)
   1107c:	fcb42423          	sw	a1,-56(s0)
   11080:	fcc42223          	sw	a2,-60(s0)
    if (pos < 0) {
   11084:	fc442783          	lw	a5,-60(s0)
   11088:	0007d863          	bgez	a5,11098 <find_equal_same_priority+0x3c>
        error_print_and_exit("find_equal_same_priority() called with a negative pos index.");
   1108c:	000317b7          	lui	a5,0x31
   11090:	4c078513          	addi	a0,a5,1216 # 314c0 <_exit+0xdc>
   11094:	260010ef          	jal	ra,122f4 <error_print_and_exit>
    }

    // Stop the recursion when we've reached the end of the 
    // queue. This has to be done before accessing the queue
    // to avoid segmentation fault.
    if (!q || (size_t)pos >= q->size) {
   11098:	fcc42783          	lw	a5,-52(s0)
   1109c:	00078a63          	beqz	a5,110b0 <find_equal_same_priority+0x54>
   110a0:	fcc42783          	lw	a5,-52(s0)
   110a4:	0007a703          	lw	a4,0(a5)
   110a8:	fc442783          	lw	a5,-60(s0)
   110ac:	00e7e663          	bltu	a5,a4,110b8 <find_equal_same_priority+0x5c>
        return NULL;
   110b0:	00000793          	li	a5,0
   110b4:	1380006f          	j	111ec <find_equal_same_priority+0x190>
    }
    
    void* rval;
    void* curr = q->d[pos];
   110b8:	fcc42783          	lw	a5,-52(s0)
   110bc:	0247a703          	lw	a4,36(a5)
   110c0:	fc442783          	lw	a5,-60(s0)
   110c4:	00279793          	slli	a5,a5,0x2
   110c8:	00f707b3          	add	a5,a4,a5
   110cc:	0007a783          	lw	a5,0(a5)
   110d0:	fcf42e23          	sw	a5,-36(s0)

    // Stop the recursion once we've surpassed the priority of the element
    // we're looking for.
    if (!curr || q->cmppri(q->getpri(curr), q->getpri(e))) {
   110d4:	fdc42783          	lw	a5,-36(s0)
   110d8:	04078c63          	beqz	a5,11130 <find_equal_same_priority+0xd4>
   110dc:	fcc42783          	lw	a5,-52(s0)
   110e0:	00c7a483          	lw	s1,12(a5)
   110e4:	fcc42783          	lw	a5,-52(s0)
   110e8:	0107a783          	lw	a5,16(a5)
   110ec:	fdc42503          	lw	a0,-36(s0)
   110f0:	000780e7          	jalr	a5
   110f4:	00050913          	mv	s2,a0
   110f8:	00058993          	mv	s3,a1
   110fc:	fcc42783          	lw	a5,-52(s0)
   11100:	0107a783          	lw	a5,16(a5)
   11104:	fc842503          	lw	a0,-56(s0)
   11108:	000780e7          	jalr	a5
   1110c:	00050713          	mv	a4,a0
   11110:	00058793          	mv	a5,a1
   11114:	00070613          	mv	a2,a4
   11118:	00078693          	mv	a3,a5
   1111c:	00090513          	mv	a0,s2
   11120:	00098593          	mv	a1,s3
   11124:	000480e7          	jalr	s1
   11128:	00050793          	mv	a5,a0
   1112c:	00078663          	beqz	a5,11138 <find_equal_same_priority+0xdc>
        return NULL;
   11130:	00000793          	li	a5,0
   11134:	0b80006f          	j	111ec <find_equal_same_priority+0x190>
    }
    
    if (q->getpri(curr) == q->getpri(e) && q->eqelem(curr, e)) {
   11138:	fcc42783          	lw	a5,-52(s0)
   1113c:	0107a783          	lw	a5,16(a5)
   11140:	fdc42503          	lw	a0,-36(s0)
   11144:	000780e7          	jalr	a5
   11148:	00050913          	mv	s2,a0
   1114c:	00058993          	mv	s3,a1
   11150:	fcc42783          	lw	a5,-52(s0)
   11154:	0107a783          	lw	a5,16(a5)
   11158:	fc842503          	lw	a0,-56(s0)
   1115c:	000780e7          	jalr	a5
   11160:	00050713          	mv	a4,a0
   11164:	00058793          	mv	a5,a1
   11168:	00090613          	mv	a2,s2
   1116c:	00070693          	mv	a3,a4
   11170:	02d61863          	bne	a2,a3,111a0 <find_equal_same_priority+0x144>
   11174:	00098693          	mv	a3,s3
   11178:	02f69463          	bne	a3,a5,111a0 <find_equal_same_priority+0x144>
   1117c:	fcc42783          	lw	a5,-52(s0)
   11180:	01c7a783          	lw	a5,28(a5)
   11184:	fc842583          	lw	a1,-56(s0)
   11188:	fdc42503          	lw	a0,-36(s0)
   1118c:	000780e7          	jalr	a5
   11190:	00050793          	mv	a5,a0
   11194:	00078663          	beqz	a5,111a0 <find_equal_same_priority+0x144>
        return curr;
   11198:	fdc42783          	lw	a5,-36(s0)
   1119c:	0500006f          	j	111ec <find_equal_same_priority+0x190>
    } else {
        rval = find_equal_same_priority(q, e, LF_LEFT(pos));
   111a0:	fc442783          	lw	a5,-60(s0)
   111a4:	00179793          	slli	a5,a5,0x1
   111a8:	00078613          	mv	a2,a5
   111ac:	fc842583          	lw	a1,-56(s0)
   111b0:	fcc42503          	lw	a0,-52(s0)
   111b4:	ea9ff0ef          	jal	ra,1105c <find_equal_same_priority>
   111b8:	fca42c23          	sw	a0,-40(s0)
        if (rval) 
   111bc:	fd842783          	lw	a5,-40(s0)
   111c0:	00078663          	beqz	a5,111cc <find_equal_same_priority+0x170>
            return rval;
   111c4:	fd842783          	lw	a5,-40(s0)
   111c8:	0240006f          	j	111ec <find_equal_same_priority+0x190>
        else
            return find_equal_same_priority(q, e, LF_RIGHT(pos));   
   111cc:	fc442783          	lw	a5,-60(s0)
   111d0:	00179793          	slli	a5,a5,0x1
   111d4:	00178793          	addi	a5,a5,1
   111d8:	00078613          	mv	a2,a5
   111dc:	fc842583          	lw	a1,-56(s0)
   111e0:	fcc42503          	lw	a0,-52(s0)
   111e4:	e79ff0ef          	jal	ra,1105c <find_equal_same_priority>
   111e8:	00050793          	mv	a5,a0
    //     if (q->d[i] == e) {
    //         return q->d[i];
    //     }
    // }
    return NULL;
}
   111ec:	00078513          	mv	a0,a5
   111f0:	03c12083          	lw	ra,60(sp)
   111f4:	03812403          	lw	s0,56(sp)
   111f8:	03412483          	lw	s1,52(sp)
   111fc:	03012903          	lw	s2,48(sp)
   11200:	02c12983          	lw	s3,44(sp)
   11204:	04010113          	addi	sp,sp,64
   11208:	00008067          	ret

0001120c <pqueue_init>:
                       pqueue_cmp_pri_f cmppri,
                       pqueue_get_pri_f getpri,
                       pqueue_get_pos_f getpos,
                       pqueue_set_pos_f setpos,
                       pqueue_eq_elem_f eqelem,
                       pqueue_print_entry_f prt) {
   1120c:	fc010113          	addi	sp,sp,-64
   11210:	02112e23          	sw	ra,60(sp)
   11214:	02812c23          	sw	s0,56(sp)
   11218:	04010413          	addi	s0,sp,64
   1121c:	fca42e23          	sw	a0,-36(s0)
   11220:	fcb42c23          	sw	a1,-40(s0)
   11224:	fcc42a23          	sw	a2,-44(s0)
   11228:	fcd42823          	sw	a3,-48(s0)
   1122c:	fce42623          	sw	a4,-52(s0)
   11230:	fcf42423          	sw	a5,-56(s0)
   11234:	fd042223          	sw	a6,-60(s0)
    pqueue_t *q;

    if (!(q = (pqueue_t*)malloc(sizeof(pqueue_t))))
   11238:	02800513          	li	a0,40
   1123c:	19c050ef          	jal	ra,163d8 <malloc>
   11240:	00050793          	mv	a5,a0
   11244:	fef42623          	sw	a5,-20(s0)
   11248:	fec42783          	lw	a5,-20(s0)
   1124c:	00079663          	bnez	a5,11258 <pqueue_init+0x4c>
        return NULL;
   11250:	00000793          	li	a5,0
   11254:	0bc0006f          	j	11310 <pqueue_init+0x104>

    /* Need to allocate n+1 elements since element 0 isn't used. */
    if (!(q->d = (void**)malloc((n + 1) * sizeof(void *)))) {
   11258:	fdc42783          	lw	a5,-36(s0)
   1125c:	00178793          	addi	a5,a5,1
   11260:	00279793          	slli	a5,a5,0x2
   11264:	00078513          	mv	a0,a5
   11268:	170050ef          	jal	ra,163d8 <malloc>
   1126c:	00050793          	mv	a5,a0
   11270:	00078713          	mv	a4,a5
   11274:	fec42783          	lw	a5,-20(s0)
   11278:	02e7a223          	sw	a4,36(a5)
   1127c:	fec42783          	lw	a5,-20(s0)
   11280:	0247a783          	lw	a5,36(a5)
   11284:	00079a63          	bnez	a5,11298 <pqueue_init+0x8c>
        free(q);
   11288:	fec42503          	lw	a0,-20(s0)
   1128c:	180050ef          	jal	ra,1640c <free>
        return NULL;
   11290:	00000793          	li	a5,0
   11294:	07c0006f          	j	11310 <pqueue_init+0x104>
    }

    q->size = 1;
   11298:	fec42783          	lw	a5,-20(s0)
   1129c:	00100713          	li	a4,1
   112a0:	00e7a023          	sw	a4,0(a5)
    q->avail = q->step = (n+1);  /* see comment above about n+1 */
   112a4:	fdc42783          	lw	a5,-36(s0)
   112a8:	00178713          	addi	a4,a5,1
   112ac:	fec42783          	lw	a5,-20(s0)
   112b0:	00e7a423          	sw	a4,8(a5)
   112b4:	fec42783          	lw	a5,-20(s0)
   112b8:	0087a703          	lw	a4,8(a5)
   112bc:	fec42783          	lw	a5,-20(s0)
   112c0:	00e7a223          	sw	a4,4(a5)
    q->cmppri = cmppri;
   112c4:	fec42783          	lw	a5,-20(s0)
   112c8:	fd842703          	lw	a4,-40(s0)
   112cc:	00e7a623          	sw	a4,12(a5)
    q->getpri = getpri;
   112d0:	fec42783          	lw	a5,-20(s0)
   112d4:	fd442703          	lw	a4,-44(s0)
   112d8:	00e7a823          	sw	a4,16(a5)
    q->getpos = getpos;
   112dc:	fec42783          	lw	a5,-20(s0)
   112e0:	fd042703          	lw	a4,-48(s0)
   112e4:	00e7aa23          	sw	a4,20(a5)
    q->setpos = setpos;
   112e8:	fec42783          	lw	a5,-20(s0)
   112ec:	fcc42703          	lw	a4,-52(s0)
   112f0:	00e7ac23          	sw	a4,24(a5)
    q->eqelem = eqelem;
   112f4:	fec42783          	lw	a5,-20(s0)
   112f8:	fc842703          	lw	a4,-56(s0)
   112fc:	00e7ae23          	sw	a4,28(a5)
    q->prt = prt;
   11300:	fec42783          	lw	a5,-20(s0)
   11304:	fc442703          	lw	a4,-60(s0)
   11308:	02e7a023          	sw	a4,32(a5)
    return q;
   1130c:	fec42783          	lw	a5,-20(s0)
}
   11310:	00078513          	mv	a0,a5
   11314:	03c12083          	lw	ra,60(sp)
   11318:	03812403          	lw	s0,56(sp)
   1131c:	04010113          	addi	sp,sp,64
   11320:	00008067          	ret

00011324 <pqueue_free>:

void pqueue_free(pqueue_t *q) {
   11324:	fe010113          	addi	sp,sp,-32
   11328:	00112e23          	sw	ra,28(sp)
   1132c:	00812c23          	sw	s0,24(sp)
   11330:	02010413          	addi	s0,sp,32
   11334:	fea42623          	sw	a0,-20(s0)
    free(q->d);
   11338:	fec42783          	lw	a5,-20(s0)
   1133c:	0247a783          	lw	a5,36(a5)
   11340:	00078513          	mv	a0,a5
   11344:	0c8050ef          	jal	ra,1640c <free>
    free(q);
   11348:	fec42503          	lw	a0,-20(s0)
   1134c:	0c0050ef          	jal	ra,1640c <free>
}
   11350:	00000013          	nop
   11354:	01c12083          	lw	ra,28(sp)
   11358:	01812403          	lw	s0,24(sp)
   1135c:	02010113          	addi	sp,sp,32
   11360:	00008067          	ret

00011364 <pqueue_size>:

size_t pqueue_size(pqueue_t *q) {
   11364:	fe010113          	addi	sp,sp,-32
   11368:	00812e23          	sw	s0,28(sp)
   1136c:	02010413          	addi	s0,sp,32
   11370:	fea42623          	sw	a0,-20(s0)
    // Queue element 0 exists but doesn't count since it isn't used.
    return (q->size - 1);
   11374:	fec42783          	lw	a5,-20(s0)
   11378:	0007a783          	lw	a5,0(a5)
   1137c:	fff78793          	addi	a5,a5,-1
}
   11380:	00078513          	mv	a0,a5
   11384:	01c12403          	lw	s0,28(sp)
   11388:	02010113          	addi	sp,sp,32
   1138c:	00008067          	ret

00011390 <maxchild>:

static size_t maxchild(pqueue_t *q, size_t i) {
   11390:	fc010113          	addi	sp,sp,-64
   11394:	02112e23          	sw	ra,60(sp)
   11398:	02812c23          	sw	s0,56(sp)
   1139c:	02912a23          	sw	s1,52(sp)
   113a0:	03212823          	sw	s2,48(sp)
   113a4:	03312623          	sw	s3,44(sp)
   113a8:	04010413          	addi	s0,sp,64
   113ac:	fca42623          	sw	a0,-52(s0)
   113b0:	fcb42423          	sw	a1,-56(s0)
    size_t child_node = LF_LEFT(i);
   113b4:	fc842783          	lw	a5,-56(s0)
   113b8:	00179793          	slli	a5,a5,0x1
   113bc:	fcf42e23          	sw	a5,-36(s0)

    if (child_node >= q->size)
   113c0:	fcc42783          	lw	a5,-52(s0)
   113c4:	0007a783          	lw	a5,0(a5)
   113c8:	fdc42703          	lw	a4,-36(s0)
   113cc:	00f76663          	bltu	a4,a5,113d8 <maxchild+0x48>
        return 0;
   113d0:	00000793          	li	a5,0
   113d4:	0b00006f          	j	11484 <maxchild+0xf4>

    if ((child_node+1) < q->size &&
   113d8:	fdc42783          	lw	a5,-36(s0)
   113dc:	00178713          	addi	a4,a5,1
   113e0:	fcc42783          	lw	a5,-52(s0)
   113e4:	0007a783          	lw	a5,0(a5)
   113e8:	08f77c63          	bgeu	a4,a5,11480 <maxchild+0xf0>
        (q->cmppri(q->getpri(q->d[child_node]), q->getpri(q->d[child_node+1])))) 
   113ec:	fcc42783          	lw	a5,-52(s0)
   113f0:	00c7a483          	lw	s1,12(a5)
   113f4:	fcc42783          	lw	a5,-52(s0)
   113f8:	0107a683          	lw	a3,16(a5)
   113fc:	fcc42783          	lw	a5,-52(s0)
   11400:	0247a703          	lw	a4,36(a5)
   11404:	fdc42783          	lw	a5,-36(s0)
   11408:	00279793          	slli	a5,a5,0x2
   1140c:	00f707b3          	add	a5,a4,a5
   11410:	0007a783          	lw	a5,0(a5)
   11414:	00078513          	mv	a0,a5
   11418:	000680e7          	jalr	a3
   1141c:	00050913          	mv	s2,a0
   11420:	00058993          	mv	s3,a1
   11424:	fcc42783          	lw	a5,-52(s0)
   11428:	0107a683          	lw	a3,16(a5)
   1142c:	fcc42783          	lw	a5,-52(s0)
   11430:	0247a703          	lw	a4,36(a5)
   11434:	fdc42783          	lw	a5,-36(s0)
   11438:	00178793          	addi	a5,a5,1
   1143c:	00279793          	slli	a5,a5,0x2
   11440:	00f707b3          	add	a5,a4,a5
   11444:	0007a783          	lw	a5,0(a5)
   11448:	00078513          	mv	a0,a5
   1144c:	000680e7          	jalr	a3
   11450:	00050713          	mv	a4,a0
   11454:	00058793          	mv	a5,a1
   11458:	00070613          	mv	a2,a4
   1145c:	00078693          	mv	a3,a5
   11460:	00090513          	mv	a0,s2
   11464:	00098593          	mv	a1,s3
   11468:	000480e7          	jalr	s1
   1146c:	00050793          	mv	a5,a0
    if ((child_node+1) < q->size &&
   11470:	00078863          	beqz	a5,11480 <maxchild+0xf0>
        child_node++; /* use right child instead of left */
   11474:	fdc42783          	lw	a5,-36(s0)
   11478:	00178793          	addi	a5,a5,1
   1147c:	fcf42e23          	sw	a5,-36(s0)

    return child_node;
   11480:	fdc42783          	lw	a5,-36(s0)
}
   11484:	00078513          	mv	a0,a5
   11488:	03c12083          	lw	ra,60(sp)
   1148c:	03812403          	lw	s0,56(sp)
   11490:	03412483          	lw	s1,52(sp)
   11494:	03012903          	lw	s2,48(sp)
   11498:	02c12983          	lw	s3,44(sp)
   1149c:	04010113          	addi	sp,sp,64
   114a0:	00008067          	ret

000114a4 <bubble_up>:

static size_t bubble_up(pqueue_t *q, size_t i) {
   114a4:	fd010113          	addi	sp,sp,-48
   114a8:	02112623          	sw	ra,44(sp)
   114ac:	02812423          	sw	s0,40(sp)
   114b0:	02912223          	sw	s1,36(sp)
   114b4:	03010413          	addi	s0,sp,48
   114b8:	fca42e23          	sw	a0,-36(s0)
   114bc:	fcb42c23          	sw	a1,-40(s0)
    size_t parent_node;
    void *moving_node = q->d[i];
   114c0:	fdc42783          	lw	a5,-36(s0)
   114c4:	0247a703          	lw	a4,36(a5)
   114c8:	fd842783          	lw	a5,-40(s0)
   114cc:	00279793          	slli	a5,a5,0x2
   114d0:	00f707b3          	add	a5,a4,a5
   114d4:	0007a783          	lw	a5,0(a5)
   114d8:	fef42423          	sw	a5,-24(s0)
    pqueue_pri_t moving_pri = q->getpri(moving_node);
   114dc:	fdc42783          	lw	a5,-36(s0)
   114e0:	0107a783          	lw	a5,16(a5)
   114e4:	fe842503          	lw	a0,-24(s0)
   114e8:	000780e7          	jalr	a5
   114ec:	fea42023          	sw	a0,-32(s0)
   114f0:	feb42223          	sw	a1,-28(s0)

    for (parent_node = LF_PARENT(i);
   114f4:	fd842783          	lw	a5,-40(s0)
   114f8:	0017d793          	srli	a5,a5,0x1
   114fc:	fef42623          	sw	a5,-20(s0)
   11500:	0740006f          	j	11574 <bubble_up+0xd0>
         ((i > 1) && q->cmppri(q->getpri(q->d[parent_node]), moving_pri));
         i = parent_node, parent_node = LF_PARENT(i))
    {
        q->d[i] = q->d[parent_node];
   11504:	fdc42783          	lw	a5,-36(s0)
   11508:	0247a703          	lw	a4,36(a5)
   1150c:	fec42783          	lw	a5,-20(s0)
   11510:	00279793          	slli	a5,a5,0x2
   11514:	00f70733          	add	a4,a4,a5
   11518:	fdc42783          	lw	a5,-36(s0)
   1151c:	0247a683          	lw	a3,36(a5)
   11520:	fd842783          	lw	a5,-40(s0)
   11524:	00279793          	slli	a5,a5,0x2
   11528:	00f687b3          	add	a5,a3,a5
   1152c:	00072703          	lw	a4,0(a4)
   11530:	00e7a023          	sw	a4,0(a5)
        q->setpos(q->d[i], i);
   11534:	fdc42783          	lw	a5,-36(s0)
   11538:	0187a683          	lw	a3,24(a5)
   1153c:	fdc42783          	lw	a5,-36(s0)
   11540:	0247a703          	lw	a4,36(a5)
   11544:	fd842783          	lw	a5,-40(s0)
   11548:	00279793          	slli	a5,a5,0x2
   1154c:	00f707b3          	add	a5,a4,a5
   11550:	0007a783          	lw	a5,0(a5)
   11554:	fd842583          	lw	a1,-40(s0)
   11558:	00078513          	mv	a0,a5
   1155c:	000680e7          	jalr	a3
         i = parent_node, parent_node = LF_PARENT(i))
   11560:	fec42783          	lw	a5,-20(s0)
   11564:	fcf42c23          	sw	a5,-40(s0)
   11568:	fd842783          	lw	a5,-40(s0)
   1156c:	0017d793          	srli	a5,a5,0x1
   11570:	fef42623          	sw	a5,-20(s0)
    for (parent_node = LF_PARENT(i);
   11574:	fd842703          	lw	a4,-40(s0)
   11578:	00100793          	li	a5,1
   1157c:	04e7fc63          	bgeu	a5,a4,115d4 <bubble_up+0x130>
         ((i > 1) && q->cmppri(q->getpri(q->d[parent_node]), moving_pri));
   11580:	fdc42783          	lw	a5,-36(s0)
   11584:	00c7a483          	lw	s1,12(a5)
   11588:	fdc42783          	lw	a5,-36(s0)
   1158c:	0107a683          	lw	a3,16(a5)
   11590:	fdc42783          	lw	a5,-36(s0)
   11594:	0247a703          	lw	a4,36(a5)
   11598:	fec42783          	lw	a5,-20(s0)
   1159c:	00279793          	slli	a5,a5,0x2
   115a0:	00f707b3          	add	a5,a4,a5
   115a4:	0007a783          	lw	a5,0(a5)
   115a8:	00078513          	mv	a0,a5
   115ac:	000680e7          	jalr	a3
   115b0:	00050713          	mv	a4,a0
   115b4:	00058793          	mv	a5,a1
   115b8:	fe042603          	lw	a2,-32(s0)
   115bc:	fe442683          	lw	a3,-28(s0)
   115c0:	00070513          	mv	a0,a4
   115c4:	00078593          	mv	a1,a5
   115c8:	000480e7          	jalr	s1
   115cc:	00050793          	mv	a5,a0
   115d0:	f2079ae3          	bnez	a5,11504 <bubble_up+0x60>
    }

    q->d[i] = moving_node;
   115d4:	fdc42783          	lw	a5,-36(s0)
   115d8:	0247a703          	lw	a4,36(a5)
   115dc:	fd842783          	lw	a5,-40(s0)
   115e0:	00279793          	slli	a5,a5,0x2
   115e4:	00f707b3          	add	a5,a4,a5
   115e8:	fe842703          	lw	a4,-24(s0)
   115ec:	00e7a023          	sw	a4,0(a5)
    q->setpos(moving_node, i);
   115f0:	fdc42783          	lw	a5,-36(s0)
   115f4:	0187a783          	lw	a5,24(a5)
   115f8:	fd842583          	lw	a1,-40(s0)
   115fc:	fe842503          	lw	a0,-24(s0)
   11600:	000780e7          	jalr	a5
    return i;
   11604:	fd842783          	lw	a5,-40(s0)
}
   11608:	00078513          	mv	a0,a5
   1160c:	02c12083          	lw	ra,44(sp)
   11610:	02812403          	lw	s0,40(sp)
   11614:	02412483          	lw	s1,36(sp)
   11618:	03010113          	addi	sp,sp,48
   1161c:	00008067          	ret

00011620 <percolate_down>:

static void percolate_down(pqueue_t *q, size_t i) {
   11620:	fc010113          	addi	sp,sp,-64
   11624:	02112e23          	sw	ra,60(sp)
   11628:	02812c23          	sw	s0,56(sp)
   1162c:	02912a23          	sw	s1,52(sp)
   11630:	04010413          	addi	s0,sp,64
   11634:	fca42623          	sw	a0,-52(s0)
   11638:	fcb42423          	sw	a1,-56(s0)
    size_t child_node;
    void *moving_node = q->d[i];
   1163c:	fcc42783          	lw	a5,-52(s0)
   11640:	0247a703          	lw	a4,36(a5)
   11644:	fc842783          	lw	a5,-56(s0)
   11648:	00279793          	slli	a5,a5,0x2
   1164c:	00f707b3          	add	a5,a4,a5
   11650:	0007a783          	lw	a5,0(a5)
   11654:	fef42623          	sw	a5,-20(s0)
    pqueue_pri_t moving_pri = q->getpri(moving_node);
   11658:	fcc42783          	lw	a5,-52(s0)
   1165c:	0107a783          	lw	a5,16(a5)
   11660:	fec42503          	lw	a0,-20(s0)
   11664:	000780e7          	jalr	a5
   11668:	fea42023          	sw	a0,-32(s0)
   1166c:	feb42223          	sw	a1,-28(s0)

    while ((child_node = maxchild(q, i)) &&
   11670:	0680006f          	j	116d8 <percolate_down+0xb8>
           q->cmppri(moving_pri, q->getpri(q->d[child_node])))
    {
        q->d[i] = q->d[child_node];
   11674:	fcc42783          	lw	a5,-52(s0)
   11678:	0247a703          	lw	a4,36(a5)
   1167c:	fdc42783          	lw	a5,-36(s0)
   11680:	00279793          	slli	a5,a5,0x2
   11684:	00f70733          	add	a4,a4,a5
   11688:	fcc42783          	lw	a5,-52(s0)
   1168c:	0247a683          	lw	a3,36(a5)
   11690:	fc842783          	lw	a5,-56(s0)
   11694:	00279793          	slli	a5,a5,0x2
   11698:	00f687b3          	add	a5,a3,a5
   1169c:	00072703          	lw	a4,0(a4)
   116a0:	00e7a023          	sw	a4,0(a5)
        q->setpos(q->d[i], i);
   116a4:	fcc42783          	lw	a5,-52(s0)
   116a8:	0187a683          	lw	a3,24(a5)
   116ac:	fcc42783          	lw	a5,-52(s0)
   116b0:	0247a703          	lw	a4,36(a5)
   116b4:	fc842783          	lw	a5,-56(s0)
   116b8:	00279793          	slli	a5,a5,0x2
   116bc:	00f707b3          	add	a5,a4,a5
   116c0:	0007a783          	lw	a5,0(a5)
   116c4:	fc842583          	lw	a1,-56(s0)
   116c8:	00078513          	mv	a0,a5
   116cc:	000680e7          	jalr	a3
        i = child_node;
   116d0:	fdc42783          	lw	a5,-36(s0)
   116d4:	fcf42423          	sw	a5,-56(s0)
    while ((child_node = maxchild(q, i)) &&
   116d8:	fc842583          	lw	a1,-56(s0)
   116dc:	fcc42503          	lw	a0,-52(s0)
   116e0:	cb1ff0ef          	jal	ra,11390 <maxchild>
   116e4:	fca42e23          	sw	a0,-36(s0)
   116e8:	fdc42783          	lw	a5,-36(s0)
   116ec:	04078c63          	beqz	a5,11744 <percolate_down+0x124>
           q->cmppri(moving_pri, q->getpri(q->d[child_node])))
   116f0:	fcc42783          	lw	a5,-52(s0)
   116f4:	00c7a483          	lw	s1,12(a5)
   116f8:	fcc42783          	lw	a5,-52(s0)
   116fc:	0107a683          	lw	a3,16(a5)
   11700:	fcc42783          	lw	a5,-52(s0)
   11704:	0247a703          	lw	a4,36(a5)
   11708:	fdc42783          	lw	a5,-36(s0)
   1170c:	00279793          	slli	a5,a5,0x2
   11710:	00f707b3          	add	a5,a4,a5
   11714:	0007a783          	lw	a5,0(a5)
   11718:	00078513          	mv	a0,a5
   1171c:	000680e7          	jalr	a3
   11720:	00050713          	mv	a4,a0
   11724:	00058793          	mv	a5,a1
   11728:	00070613          	mv	a2,a4
   1172c:	00078693          	mv	a3,a5
   11730:	fe042503          	lw	a0,-32(s0)
   11734:	fe442583          	lw	a1,-28(s0)
   11738:	000480e7          	jalr	s1
   1173c:	00050793          	mv	a5,a0
    while ((child_node = maxchild(q, i)) &&
   11740:	f2079ae3          	bnez	a5,11674 <percolate_down+0x54>
    }

    q->d[i] = moving_node;
   11744:	fcc42783          	lw	a5,-52(s0)
   11748:	0247a703          	lw	a4,36(a5)
   1174c:	fc842783          	lw	a5,-56(s0)
   11750:	00279793          	slli	a5,a5,0x2
   11754:	00f707b3          	add	a5,a4,a5
   11758:	fec42703          	lw	a4,-20(s0)
   1175c:	00e7a023          	sw	a4,0(a5)
    q->setpos(moving_node, i);
   11760:	fcc42783          	lw	a5,-52(s0)
   11764:	0187a783          	lw	a5,24(a5)
   11768:	fc842583          	lw	a1,-56(s0)
   1176c:	fec42503          	lw	a0,-20(s0)
   11770:	000780e7          	jalr	a5
}
   11774:	00000013          	nop
   11778:	03c12083          	lw	ra,60(sp)
   1177c:	03812403          	lw	s0,56(sp)
   11780:	03412483          	lw	s1,52(sp)
   11784:	04010113          	addi	sp,sp,64
   11788:	00008067          	ret

0001178c <pqueue_find_equal_same_priority>:

void* pqueue_find_equal_same_priority(pqueue_t *q, void *e) {
   1178c:	fe010113          	addi	sp,sp,-32
   11790:	00112e23          	sw	ra,28(sp)
   11794:	00812c23          	sw	s0,24(sp)
   11798:	02010413          	addi	s0,sp,32
   1179c:	fea42623          	sw	a0,-20(s0)
   117a0:	feb42423          	sw	a1,-24(s0)
    return find_equal_same_priority(q, e, 1);
   117a4:	00100613          	li	a2,1
   117a8:	fe842583          	lw	a1,-24(s0)
   117ac:	fec42503          	lw	a0,-20(s0)
   117b0:	8adff0ef          	jal	ra,1105c <find_equal_same_priority>
   117b4:	00050793          	mv	a5,a0
}
   117b8:	00078513          	mv	a0,a5
   117bc:	01c12083          	lw	ra,28(sp)
   117c0:	01812403          	lw	s0,24(sp)
   117c4:	02010113          	addi	sp,sp,32
   117c8:	00008067          	ret

000117cc <pqueue_find_equal>:

void* pqueue_find_equal(pqueue_t *q, void *e, pqueue_pri_t max) {
   117cc:	fe010113          	addi	sp,sp,-32
   117d0:	00112e23          	sw	ra,28(sp)
   117d4:	00812c23          	sw	s0,24(sp)
   117d8:	02010413          	addi	s0,sp,32
   117dc:	fea42623          	sw	a0,-20(s0)
   117e0:	feb42423          	sw	a1,-24(s0)
   117e4:	fec42023          	sw	a2,-32(s0)
   117e8:	fed42223          	sw	a3,-28(s0)
    return find_equal(q, e, 1, max);
   117ec:	fe042683          	lw	a3,-32(s0)
   117f0:	fe442703          	lw	a4,-28(s0)
   117f4:	00100613          	li	a2,1
   117f8:	fe842583          	lw	a1,-24(s0)
   117fc:	fec42503          	lw	a0,-20(s0)
   11800:	f00ff0ef          	jal	ra,10f00 <find_equal>
   11804:	00050793          	mv	a5,a0
}
   11808:	00078513          	mv	a0,a5
   1180c:	01c12083          	lw	ra,28(sp)
   11810:	01812403          	lw	s0,24(sp)
   11814:	02010113          	addi	sp,sp,32
   11818:	00008067          	ret

0001181c <pqueue_insert>:

int pqueue_insert(pqueue_t *q, void *d) {
   1181c:	fd010113          	addi	sp,sp,-48
   11820:	02112623          	sw	ra,44(sp)
   11824:	02812423          	sw	s0,40(sp)
   11828:	03010413          	addi	s0,sp,48
   1182c:	fca42e23          	sw	a0,-36(s0)
   11830:	fcb42c23          	sw	a1,-40(s0)
    void **tmp;
    size_t i;
    size_t newsize;

    if (!q) return 1;
   11834:	fdc42783          	lw	a5,-36(s0)
   11838:	00079663          	bnez	a5,11844 <pqueue_insert+0x28>
   1183c:	00100793          	li	a5,1
   11840:	0bc0006f          	j	118fc <pqueue_insert+0xe0>
    //         exit(1);
    //     }
    // }

    /* allocate more memory if necessary */
    if (q->size >= q->avail) {
   11844:	fdc42783          	lw	a5,-36(s0)
   11848:	0007a703          	lw	a4,0(a5)
   1184c:	fdc42783          	lw	a5,-36(s0)
   11850:	0047a783          	lw	a5,4(a5)
   11854:	06f76263          	bltu	a4,a5,118b8 <pqueue_insert+0x9c>
        newsize = q->size + q->step;
   11858:	fdc42783          	lw	a5,-36(s0)
   1185c:	0007a703          	lw	a4,0(a5)
   11860:	fdc42783          	lw	a5,-36(s0)
   11864:	0087a783          	lw	a5,8(a5)
   11868:	00f707b3          	add	a5,a4,a5
   1186c:	fef42623          	sw	a5,-20(s0)
        if (!(tmp = (void**)realloc(q->d, sizeof(void *) * newsize)))
   11870:	fdc42783          	lw	a5,-36(s0)
   11874:	0247a703          	lw	a4,36(a5)
   11878:	fec42783          	lw	a5,-20(s0)
   1187c:	00279793          	slli	a5,a5,0x2
   11880:	00078593          	mv	a1,a5
   11884:	00070513          	mv	a0,a4
   11888:	1a5070ef          	jal	ra,1922c <realloc>
   1188c:	fea42423          	sw	a0,-24(s0)
   11890:	fe842783          	lw	a5,-24(s0)
   11894:	00079663          	bnez	a5,118a0 <pqueue_insert+0x84>
            return 1;
   11898:	00100793          	li	a5,1
   1189c:	0600006f          	j	118fc <pqueue_insert+0xe0>
        q->d = tmp;
   118a0:	fdc42783          	lw	a5,-36(s0)
   118a4:	fe842703          	lw	a4,-24(s0)
   118a8:	02e7a223          	sw	a4,36(a5)
        q->avail = newsize;
   118ac:	fdc42783          	lw	a5,-36(s0)
   118b0:	fec42703          	lw	a4,-20(s0)
   118b4:	00e7a223          	sw	a4,4(a5)
    }
    /* insert item and organize the tree */
    i = q->size++;
   118b8:	fdc42783          	lw	a5,-36(s0)
   118bc:	0007a783          	lw	a5,0(a5)
   118c0:	00178693          	addi	a3,a5,1
   118c4:	fdc42703          	lw	a4,-36(s0)
   118c8:	00d72023          	sw	a3,0(a4)
   118cc:	fef42223          	sw	a5,-28(s0)
    q->d[i] = d;
   118d0:	fdc42783          	lw	a5,-36(s0)
   118d4:	0247a703          	lw	a4,36(a5)
   118d8:	fe442783          	lw	a5,-28(s0)
   118dc:	00279793          	slli	a5,a5,0x2
   118e0:	00f707b3          	add	a5,a4,a5
   118e4:	fd842703          	lw	a4,-40(s0)
   118e8:	00e7a023          	sw	a4,0(a5)
    bubble_up(q, i);
   118ec:	fe442583          	lw	a1,-28(s0)
   118f0:	fdc42503          	lw	a0,-36(s0)
   118f4:	bb1ff0ef          	jal	ra,114a4 <bubble_up>
    // if (!pqueue_is_valid(q)) {
    //     pqueue_dump(q, stdout, q->prt);
    //     exit(1);
    // }

    return 0;
   118f8:	00000793          	li	a5,0
}
   118fc:	00078513          	mv	a0,a5
   11900:	02c12083          	lw	ra,44(sp)
   11904:	02812403          	lw	s0,40(sp)
   11908:	03010113          	addi	sp,sp,48
   1190c:	00008067          	ret

00011910 <pqueue_remove>:

int pqueue_remove(pqueue_t *q, void *d) {
   11910:	fc010113          	addi	sp,sp,-64
   11914:	02112e23          	sw	ra,60(sp)
   11918:	02812c23          	sw	s0,56(sp)
   1191c:	02912a23          	sw	s1,52(sp)
   11920:	03212823          	sw	s2,48(sp)
   11924:	03312623          	sw	s3,44(sp)
   11928:	04010413          	addi	s0,sp,64
   1192c:	fca42623          	sw	a0,-52(s0)
   11930:	fcb42423          	sw	a1,-56(s0)
    size_t posn = q->getpos(d);
   11934:	fcc42783          	lw	a5,-52(s0)
   11938:	0147a783          	lw	a5,20(a5)
   1193c:	fc842503          	lw	a0,-56(s0)
   11940:	000780e7          	jalr	a5
   11944:	fca42e23          	sw	a0,-36(s0)
    q->d[posn] = q->d[--q->size];
   11948:	fcc42783          	lw	a5,-52(s0)
   1194c:	0247a703          	lw	a4,36(a5)
   11950:	fcc42783          	lw	a5,-52(s0)
   11954:	0007a783          	lw	a5,0(a5)
   11958:	fff78693          	addi	a3,a5,-1
   1195c:	fcc42783          	lw	a5,-52(s0)
   11960:	00d7a023          	sw	a3,0(a5)
   11964:	fcc42783          	lw	a5,-52(s0)
   11968:	0007a783          	lw	a5,0(a5)
   1196c:	00279793          	slli	a5,a5,0x2
   11970:	00f70733          	add	a4,a4,a5
   11974:	fcc42783          	lw	a5,-52(s0)
   11978:	0247a683          	lw	a3,36(a5)
   1197c:	fdc42783          	lw	a5,-36(s0)
   11980:	00279793          	slli	a5,a5,0x2
   11984:	00f687b3          	add	a5,a3,a5
   11988:	00072703          	lw	a4,0(a4)
   1198c:	00e7a023          	sw	a4,0(a5)
    if (q->cmppri(q->getpri(d), q->getpri(q->d[posn])))
   11990:	fcc42783          	lw	a5,-52(s0)
   11994:	00c7a483          	lw	s1,12(a5)
   11998:	fcc42783          	lw	a5,-52(s0)
   1199c:	0107a783          	lw	a5,16(a5)
   119a0:	fc842503          	lw	a0,-56(s0)
   119a4:	000780e7          	jalr	a5
   119a8:	00050913          	mv	s2,a0
   119ac:	00058993          	mv	s3,a1
   119b0:	fcc42783          	lw	a5,-52(s0)
   119b4:	0107a683          	lw	a3,16(a5)
   119b8:	fcc42783          	lw	a5,-52(s0)
   119bc:	0247a703          	lw	a4,36(a5)
   119c0:	fdc42783          	lw	a5,-36(s0)
   119c4:	00279793          	slli	a5,a5,0x2
   119c8:	00f707b3          	add	a5,a4,a5
   119cc:	0007a783          	lw	a5,0(a5)
   119d0:	00078513          	mv	a0,a5
   119d4:	000680e7          	jalr	a3
   119d8:	00050713          	mv	a4,a0
   119dc:	00058793          	mv	a5,a1
   119e0:	00070613          	mv	a2,a4
   119e4:	00078693          	mv	a3,a5
   119e8:	00090513          	mv	a0,s2
   119ec:	00098593          	mv	a1,s3
   119f0:	000480e7          	jalr	s1
   119f4:	00050793          	mv	a5,a0
   119f8:	00078a63          	beqz	a5,11a0c <pqueue_remove+0xfc>
        bubble_up(q, posn);
   119fc:	fdc42583          	lw	a1,-36(s0)
   11a00:	fcc42503          	lw	a0,-52(s0)
   11a04:	aa1ff0ef          	jal	ra,114a4 <bubble_up>
   11a08:	0100006f          	j	11a18 <pqueue_remove+0x108>
    else
        percolate_down(q, posn);
   11a0c:	fdc42583          	lw	a1,-36(s0)
   11a10:	fcc42503          	lw	a0,-52(s0)
   11a14:	c0dff0ef          	jal	ra,11620 <percolate_down>

    return 0;
   11a18:	00000793          	li	a5,0
}
   11a1c:	00078513          	mv	a0,a5
   11a20:	03c12083          	lw	ra,60(sp)
   11a24:	03812403          	lw	s0,56(sp)
   11a28:	03412483          	lw	s1,52(sp)
   11a2c:	03012903          	lw	s2,48(sp)
   11a30:	02c12983          	lw	s3,44(sp)
   11a34:	04010113          	addi	sp,sp,64
   11a38:	00008067          	ret

00011a3c <pqueue_pop>:

void* pqueue_pop(pqueue_t *q) {
   11a3c:	fd010113          	addi	sp,sp,-48
   11a40:	02112623          	sw	ra,44(sp)
   11a44:	02812423          	sw	s0,40(sp)
   11a48:	03010413          	addi	s0,sp,48
   11a4c:	fca42e23          	sw	a0,-36(s0)
    void* head;
    
    if (!q || q->size == 1)
   11a50:	fdc42783          	lw	a5,-36(s0)
   11a54:	00078a63          	beqz	a5,11a68 <pqueue_pop+0x2c>
   11a58:	fdc42783          	lw	a5,-36(s0)
   11a5c:	0007a703          	lw	a4,0(a5)
   11a60:	00100793          	li	a5,1
   11a64:	00f71663          	bne	a4,a5,11a70 <pqueue_pop+0x34>
        return NULL;
   11a68:	00000793          	li	a5,0
   11a6c:	0640006f          	j	11ad0 <pqueue_pop+0x94>
        
    head = q->d[1];
   11a70:	fdc42783          	lw	a5,-36(s0)
   11a74:	0247a783          	lw	a5,36(a5)
   11a78:	0047a783          	lw	a5,4(a5)
   11a7c:	fef42623          	sw	a5,-20(s0)
    q->d[1] = q->d[--q->size];
   11a80:	fdc42783          	lw	a5,-36(s0)
   11a84:	0247a703          	lw	a4,36(a5)
   11a88:	fdc42783          	lw	a5,-36(s0)
   11a8c:	0007a783          	lw	a5,0(a5)
   11a90:	fff78693          	addi	a3,a5,-1
   11a94:	fdc42783          	lw	a5,-36(s0)
   11a98:	00d7a023          	sw	a3,0(a5)
   11a9c:	fdc42783          	lw	a5,-36(s0)
   11aa0:	0007a783          	lw	a5,0(a5)
   11aa4:	00279793          	slli	a5,a5,0x2
   11aa8:	00f70733          	add	a4,a4,a5
   11aac:	fdc42783          	lw	a5,-36(s0)
   11ab0:	0247a783          	lw	a5,36(a5)
   11ab4:	00478793          	addi	a5,a5,4
   11ab8:	00072703          	lw	a4,0(a4)
   11abc:	00e7a023          	sw	a4,0(a5)
    percolate_down(q, 1);
   11ac0:	00100593          	li	a1,1
   11ac4:	fdc42503          	lw	a0,-36(s0)
   11ac8:	b59ff0ef          	jal	ra,11620 <percolate_down>
    
    return head;
   11acc:	fec42783          	lw	a5,-20(s0)
}
   11ad0:	00078513          	mv	a0,a5
   11ad4:	02c12083          	lw	ra,44(sp)
   11ad8:	02812403          	lw	s0,40(sp)
   11adc:	03010113          	addi	sp,sp,48
   11ae0:	00008067          	ret

00011ae4 <pqueue_peek>:

void* pqueue_peek(pqueue_t *q) {
   11ae4:	fd010113          	addi	sp,sp,-48
   11ae8:	02812623          	sw	s0,44(sp)
   11aec:	03010413          	addi	s0,sp,48
   11af0:	fca42e23          	sw	a0,-36(s0)
    void *d;
    if (!q || q->size == 1)
   11af4:	fdc42783          	lw	a5,-36(s0)
   11af8:	00078a63          	beqz	a5,11b0c <pqueue_peek+0x28>
   11afc:	fdc42783          	lw	a5,-36(s0)
   11b00:	0007a703          	lw	a4,0(a5)
   11b04:	00100793          	li	a5,1
   11b08:	00f71663          	bne	a4,a5,11b14 <pqueue_peek+0x30>
        return NULL;
   11b0c:	00000793          	li	a5,0
   11b10:	0180006f          	j	11b28 <pqueue_peek+0x44>
    d = q->d[1];
   11b14:	fdc42783          	lw	a5,-36(s0)
   11b18:	0247a783          	lw	a5,36(a5)
   11b1c:	0047a783          	lw	a5,4(a5)
   11b20:	fef42623          	sw	a5,-20(s0)
    return d;
   11b24:	fec42783          	lw	a5,-20(s0)
}
   11b28:	00078513          	mv	a0,a5
   11b2c:	02c12403          	lw	s0,44(sp)
   11b30:	03010113          	addi	sp,sp,48
   11b34:	00008067          	ret

00011b38 <pqueue_dump>:

void pqueue_dump(pqueue_t *q, pqueue_print_entry_f print) {
   11b38:	fd010113          	addi	sp,sp,-48
   11b3c:	02112623          	sw	ra,44(sp)
   11b40:	02812423          	sw	s0,40(sp)
   11b44:	03010413          	addi	s0,sp,48
   11b48:	fca42e23          	sw	a0,-36(s0)
   11b4c:	fcb42c23          	sw	a1,-40(s0)
    size_t i;

    DEBUG_PRINT("posn\tleft\tright\tparent\tmaxchild\t...");
    for (i = 1; i < q->size ;i++) {
   11b50:	00100793          	li	a5,1
   11b54:	fef42623          	sw	a5,-20(s0)
   11b58:	0340006f          	j	11b8c <pqueue_dump+0x54>
        DEBUG_PRINT("%zu\t%zu\t%zu\t%zu\t%ul\t",
                i,
                LF_LEFT(i), LF_RIGHT(i), LF_PARENT(i),
                (unsigned int)maxchild(q, i));
        print(q->d[i]);
   11b5c:	fdc42783          	lw	a5,-36(s0)
   11b60:	0247a703          	lw	a4,36(a5)
   11b64:	fec42783          	lw	a5,-20(s0)
   11b68:	00279793          	slli	a5,a5,0x2
   11b6c:	00f707b3          	add	a5,a4,a5
   11b70:	0007a783          	lw	a5,0(a5)
   11b74:	fd842703          	lw	a4,-40(s0)
   11b78:	00078513          	mv	a0,a5
   11b7c:	000700e7          	jalr	a4
    for (i = 1; i < q->size ;i++) {
   11b80:	fec42783          	lw	a5,-20(s0)
   11b84:	00178793          	addi	a5,a5,1
   11b88:	fef42623          	sw	a5,-20(s0)
   11b8c:	fdc42783          	lw	a5,-36(s0)
   11b90:	0007a783          	lw	a5,0(a5)
   11b94:	fec42703          	lw	a4,-20(s0)
   11b98:	fcf762e3          	bltu	a4,a5,11b5c <pqueue_dump+0x24>
    }
}
   11b9c:	00000013          	nop
   11ba0:	00000013          	nop
   11ba4:	02c12083          	lw	ra,44(sp)
   11ba8:	02812403          	lw	s0,40(sp)
   11bac:	03010113          	addi	sp,sp,48
   11bb0:	00008067          	ret

00011bb4 <pqueue_print>:

void pqueue_print(pqueue_t *q, pqueue_print_entry_f print) {
   11bb4:	fd010113          	addi	sp,sp,-48
   11bb8:	02112623          	sw	ra,44(sp)
   11bbc:	02812423          	sw	s0,40(sp)
   11bc0:	03010413          	addi	s0,sp,48
   11bc4:	fca42e23          	sw	a0,-36(s0)
   11bc8:	fcb42c23          	sw	a1,-40(s0)
    pqueue_t *dup;
	void *e;

    dup = pqueue_init(q->size,
   11bcc:	fdc42783          	lw	a5,-36(s0)
   11bd0:	0007a503          	lw	a0,0(a5)
   11bd4:	fdc42783          	lw	a5,-36(s0)
   11bd8:	00c7a583          	lw	a1,12(a5)
   11bdc:	fdc42783          	lw	a5,-36(s0)
   11be0:	0107a603          	lw	a2,16(a5)
   11be4:	fdc42783          	lw	a5,-36(s0)
   11be8:	0147a683          	lw	a3,20(a5)
   11bec:	fdc42783          	lw	a5,-36(s0)
   11bf0:	0187a703          	lw	a4,24(a5)
   11bf4:	fdc42783          	lw	a5,-36(s0)
   11bf8:	01c7a883          	lw	a7,28(a5)
   11bfc:	fdc42783          	lw	a5,-36(s0)
   11c00:	0207a783          	lw	a5,32(a5)
   11c04:	00078813          	mv	a6,a5
   11c08:	00088793          	mv	a5,a7
   11c0c:	e00ff0ef          	jal	ra,1120c <pqueue_init>
   11c10:	fea42623          	sw	a0,-20(s0)
                      q->cmppri, q->getpri,
                      q->getpos, q->setpos, q->eqelem, q->prt);
    dup->size = q->size;
   11c14:	fdc42783          	lw	a5,-36(s0)
   11c18:	0007a703          	lw	a4,0(a5)
   11c1c:	fec42783          	lw	a5,-20(s0)
   11c20:	00e7a023          	sw	a4,0(a5)
    dup->avail = q->avail;
   11c24:	fdc42783          	lw	a5,-36(s0)
   11c28:	0047a703          	lw	a4,4(a5)
   11c2c:	fec42783          	lw	a5,-20(s0)
   11c30:	00e7a223          	sw	a4,4(a5)
    dup->step = q->step;
   11c34:	fdc42783          	lw	a5,-36(s0)
   11c38:	0087a703          	lw	a4,8(a5)
   11c3c:	fec42783          	lw	a5,-20(s0)
   11c40:	00e7a423          	sw	a4,8(a5)

    memcpy(dup->d, q->d, (q->size * sizeof(void *)));
   11c44:	fec42783          	lw	a5,-20(s0)
   11c48:	0247a703          	lw	a4,36(a5)
   11c4c:	fdc42783          	lw	a5,-36(s0)
   11c50:	0247a683          	lw	a3,36(a5)
   11c54:	fdc42783          	lw	a5,-36(s0)
   11c58:	0007a783          	lw	a5,0(a5)
   11c5c:	00279793          	slli	a5,a5,0x2
   11c60:	00078613          	mv	a2,a5
   11c64:	00068593          	mv	a1,a3
   11c68:	00070513          	mv	a0,a4
   11c6c:	2dc070ef          	jal	ra,18f48 <memcpy>

    while ((e = pqueue_pop(dup)))
   11c70:	0100006f          	j	11c80 <pqueue_print+0xcc>
		print(e);
   11c74:	fd842783          	lw	a5,-40(s0)
   11c78:	fe842503          	lw	a0,-24(s0)
   11c7c:	000780e7          	jalr	a5
    while ((e = pqueue_pop(dup)))
   11c80:	fec42503          	lw	a0,-20(s0)
   11c84:	db9ff0ef          	jal	ra,11a3c <pqueue_pop>
   11c88:	fea42423          	sw	a0,-24(s0)
   11c8c:	fe842783          	lw	a5,-24(s0)
   11c90:	fe0792e3          	bnez	a5,11c74 <pqueue_print+0xc0>

    pqueue_free(dup);
   11c94:	fec42503          	lw	a0,-20(s0)
   11c98:	e8cff0ef          	jal	ra,11324 <pqueue_free>
}
   11c9c:	00000013          	nop
   11ca0:	02c12083          	lw	ra,44(sp)
   11ca4:	02812403          	lw	s0,40(sp)
   11ca8:	03010113          	addi	sp,sp,48
   11cac:	00008067          	ret

00011cb0 <subtree_is_valid>:


static int subtree_is_valid(pqueue_t *q, int pos) {
   11cb0:	fc010113          	addi	sp,sp,-64
   11cb4:	02112e23          	sw	ra,60(sp)
   11cb8:	02812c23          	sw	s0,56(sp)
   11cbc:	02912a23          	sw	s1,52(sp)
   11cc0:	03212823          	sw	s2,48(sp)
   11cc4:	03312623          	sw	s3,44(sp)
   11cc8:	04010413          	addi	s0,sp,64
   11ccc:	fca42623          	sw	a0,-52(s0)
   11cd0:	fcb42423          	sw	a1,-56(s0)
    if (pos < 0) {
   11cd4:	fc842783          	lw	a5,-56(s0)
   11cd8:	0007d863          	bgez	a5,11ce8 <subtree_is_valid+0x38>
        error_print_and_exit("subtree_is_valid() called with a negative pos index.");
   11cdc:	000317b7          	lui	a5,0x31
   11ce0:	50078513          	addi	a0,a5,1280 # 31500 <_exit+0x11c>
   11ce4:	610000ef          	jal	ra,122f4 <error_print_and_exit>
    }

    int left_pos = LF_LEFT(pos);
   11ce8:	fc842783          	lw	a5,-56(s0)
   11cec:	00179793          	slli	a5,a5,0x1
   11cf0:	fcf42e23          	sw	a5,-36(s0)
    if (left_pos < 0) {
   11cf4:	fdc42783          	lw	a5,-36(s0)
   11cf8:	0007d863          	bgez	a5,11d08 <subtree_is_valid+0x58>
        error_print_and_exit("subtree_is_valid(): index overflow detected.");
   11cfc:	000317b7          	lui	a5,0x31
   11d00:	53878513          	addi	a0,a5,1336 # 31538 <_exit+0x154>
   11d04:	5f0000ef          	jal	ra,122f4 <error_print_and_exit>
    }

    if ((size_t)left_pos < q->size) {
   11d08:	fcc42783          	lw	a5,-52(s0)
   11d0c:	0007a703          	lw	a4,0(a5)
   11d10:	fdc42783          	lw	a5,-36(s0)
   11d14:	0ae7fc63          	bgeu	a5,a4,11dcc <subtree_is_valid+0x11c>
        /* has a left child */
        if (q->cmppri(q->getpri(q->d[pos]), q->getpri(q->d[LF_LEFT(pos)])))
   11d18:	fcc42783          	lw	a5,-52(s0)
   11d1c:	00c7a483          	lw	s1,12(a5)
   11d20:	fcc42783          	lw	a5,-52(s0)
   11d24:	0107a683          	lw	a3,16(a5)
   11d28:	fcc42783          	lw	a5,-52(s0)
   11d2c:	0247a703          	lw	a4,36(a5)
   11d30:	fc842783          	lw	a5,-56(s0)
   11d34:	00279793          	slli	a5,a5,0x2
   11d38:	00f707b3          	add	a5,a4,a5
   11d3c:	0007a783          	lw	a5,0(a5)
   11d40:	00078513          	mv	a0,a5
   11d44:	000680e7          	jalr	a3
   11d48:	00050913          	mv	s2,a0
   11d4c:	00058993          	mv	s3,a1
   11d50:	fcc42783          	lw	a5,-52(s0)
   11d54:	0107a683          	lw	a3,16(a5)
   11d58:	fcc42783          	lw	a5,-52(s0)
   11d5c:	0247a703          	lw	a4,36(a5)
   11d60:	fc842783          	lw	a5,-56(s0)
   11d64:	00179793          	slli	a5,a5,0x1
   11d68:	00279793          	slli	a5,a5,0x2
   11d6c:	00f707b3          	add	a5,a4,a5
   11d70:	0007a783          	lw	a5,0(a5)
   11d74:	00078513          	mv	a0,a5
   11d78:	000680e7          	jalr	a3
   11d7c:	00050713          	mv	a4,a0
   11d80:	00058793          	mv	a5,a1
   11d84:	00070613          	mv	a2,a4
   11d88:	00078693          	mv	a3,a5
   11d8c:	00090513          	mv	a0,s2
   11d90:	00098593          	mv	a1,s3
   11d94:	000480e7          	jalr	s1
   11d98:	00050793          	mv	a5,a0
   11d9c:	00078663          	beqz	a5,11da8 <subtree_is_valid+0xf8>
            return 0;
   11da0:	00000793          	li	a5,0
   11da4:	11c0006f          	j	11ec0 <subtree_is_valid+0x210>
        if (!subtree_is_valid(q, LF_LEFT(pos)))
   11da8:	fc842783          	lw	a5,-56(s0)
   11dac:	00179793          	slli	a5,a5,0x1
   11db0:	00078593          	mv	a1,a5
   11db4:	fcc42503          	lw	a0,-52(s0)
   11db8:	ef9ff0ef          	jal	ra,11cb0 <subtree_is_valid>
   11dbc:	00050793          	mv	a5,a0
   11dc0:	00079663          	bnez	a5,11dcc <subtree_is_valid+0x11c>
            return 0;
   11dc4:	00000793          	li	a5,0
   11dc8:	0f80006f          	j	11ec0 <subtree_is_valid+0x210>
    }

    int right_pos = LF_RIGHT(pos);
   11dcc:	fc842783          	lw	a5,-56(s0)
   11dd0:	00179793          	slli	a5,a5,0x1
   11dd4:	00178793          	addi	a5,a5,1
   11dd8:	fcf42c23          	sw	a5,-40(s0)
    if (right_pos < 0) {
   11ddc:	fd842783          	lw	a5,-40(s0)
   11de0:	0007d863          	bgez	a5,11df0 <subtree_is_valid+0x140>
        error_print_and_exit("subtree_is_valid(): index overflow detected.");
   11de4:	000317b7          	lui	a5,0x31
   11de8:	53878513          	addi	a0,a5,1336 # 31538 <_exit+0x154>
   11dec:	508000ef          	jal	ra,122f4 <error_print_and_exit>
    }
    if ((size_t)right_pos < q->size) {
   11df0:	fcc42783          	lw	a5,-52(s0)
   11df4:	0007a703          	lw	a4,0(a5)
   11df8:	fd842783          	lw	a5,-40(s0)
   11dfc:	0ce7f063          	bgeu	a5,a4,11ebc <subtree_is_valid+0x20c>
        /* has a right child */
        if (q->cmppri(q->getpri(q->d[pos]), q->getpri(q->d[LF_RIGHT(pos)])))
   11e00:	fcc42783          	lw	a5,-52(s0)
   11e04:	00c7a483          	lw	s1,12(a5)
   11e08:	fcc42783          	lw	a5,-52(s0)
   11e0c:	0107a683          	lw	a3,16(a5)
   11e10:	fcc42783          	lw	a5,-52(s0)
   11e14:	0247a703          	lw	a4,36(a5)
   11e18:	fc842783          	lw	a5,-56(s0)
   11e1c:	00279793          	slli	a5,a5,0x2
   11e20:	00f707b3          	add	a5,a4,a5
   11e24:	0007a783          	lw	a5,0(a5)
   11e28:	00078513          	mv	a0,a5
   11e2c:	000680e7          	jalr	a3
   11e30:	00050913          	mv	s2,a0
   11e34:	00058993          	mv	s3,a1
   11e38:	fcc42783          	lw	a5,-52(s0)
   11e3c:	0107a683          	lw	a3,16(a5)
   11e40:	fcc42783          	lw	a5,-52(s0)
   11e44:	0247a703          	lw	a4,36(a5)
   11e48:	fc842783          	lw	a5,-56(s0)
   11e4c:	00179793          	slli	a5,a5,0x1
   11e50:	00178793          	addi	a5,a5,1
   11e54:	00279793          	slli	a5,a5,0x2
   11e58:	00f707b3          	add	a5,a4,a5
   11e5c:	0007a783          	lw	a5,0(a5)
   11e60:	00078513          	mv	a0,a5
   11e64:	000680e7          	jalr	a3
   11e68:	00050713          	mv	a4,a0
   11e6c:	00058793          	mv	a5,a1
   11e70:	00070613          	mv	a2,a4
   11e74:	00078693          	mv	a3,a5
   11e78:	00090513          	mv	a0,s2
   11e7c:	00098593          	mv	a1,s3
   11e80:	000480e7          	jalr	s1
   11e84:	00050793          	mv	a5,a0
   11e88:	00078663          	beqz	a5,11e94 <subtree_is_valid+0x1e4>
            return 0;
   11e8c:	00000793          	li	a5,0
   11e90:	0300006f          	j	11ec0 <subtree_is_valid+0x210>
        if (!subtree_is_valid(q, LF_RIGHT(pos)))
   11e94:	fc842783          	lw	a5,-56(s0)
   11e98:	00179793          	slli	a5,a5,0x1
   11e9c:	00178793          	addi	a5,a5,1
   11ea0:	00078593          	mv	a1,a5
   11ea4:	fcc42503          	lw	a0,-52(s0)
   11ea8:	e09ff0ef          	jal	ra,11cb0 <subtree_is_valid>
   11eac:	00050793          	mv	a5,a0
   11eb0:	00079663          	bnez	a5,11ebc <subtree_is_valid+0x20c>
            return 0;
   11eb4:	00000793          	li	a5,0
   11eb8:	0080006f          	j	11ec0 <subtree_is_valid+0x210>
    }
    return 1;
   11ebc:	00100793          	li	a5,1
}
   11ec0:	00078513          	mv	a0,a5
   11ec4:	03c12083          	lw	ra,60(sp)
   11ec8:	03812403          	lw	s0,56(sp)
   11ecc:	03412483          	lw	s1,52(sp)
   11ed0:	03012903          	lw	s2,48(sp)
   11ed4:	02c12983          	lw	s3,44(sp)
   11ed8:	04010113          	addi	sp,sp,64
   11edc:	00008067          	ret

00011ee0 <pqueue_is_valid>:

int pqueue_is_valid(pqueue_t *q) {
   11ee0:	fe010113          	addi	sp,sp,-32
   11ee4:	00112e23          	sw	ra,28(sp)
   11ee8:	00812c23          	sw	s0,24(sp)
   11eec:	02010413          	addi	s0,sp,32
   11ef0:	fea42623          	sw	a0,-20(s0)
    return subtree_is_valid(q, 1);
   11ef4:	00100593          	li	a1,1
   11ef8:	fec42503          	lw	a0,-20(s0)
   11efc:	db5ff0ef          	jal	ra,11cb0 <subtree_is_valid>
   11f00:	00050793          	mv	a5,a0
}
   11f04:	00078513          	mv	a0,a5
   11f08:	01c12083          	lw	ra,28(sp)
   11f0c:	01812403          	lw	s0,24(sp)
   11f10:	02010113          	addi	sp,sp,32
   11f14:	00008067          	ret

00011f18 <get_fed_id>:
int print_message_level = -1;

/**
 * Return the federate ID or -1 if this program is not part of a federation.
 */
int get_fed_id() {
   11f18:	ff010113          	addi	sp,sp,-16
   11f1c:	00812623          	sw	s0,12(sp)
   11f20:	01010413          	addi	s0,sp,16
	return _lf_my_fed_id;
   11f24:	2501a783          	lw	a5,592(gp) # 34e40 <_lf_my_fed_id>
}
   11f28:	00078513          	mv	a0,a5
   11f2c:	00c12403          	lw	s0,12(sp)
   11f30:	01010113          	addi	sp,sp,16
   11f34:	00008067          	ret

00011f38 <_lf_message_print>:
/**
 * Internal implementation of the next few reporting functions.
 */
void _lf_message_print(
		int is_error, char* prefix, char* format, va_list args, int log_level
) {
   11f38:	fc010113          	addi	sp,sp,-64
   11f3c:	02112e23          	sw	ra,60(sp)
   11f40:	02812c23          	sw	s0,56(sp)
   11f44:	02912a23          	sw	s1,52(sp)
   11f48:	04010413          	addi	s0,sp,64
   11f4c:	fca42e23          	sw	a0,-36(s0)
   11f50:	fcb42c23          	sw	a1,-40(s0)
   11f54:	fcc42a23          	sw	a2,-44(s0)
   11f58:	fcd42823          	sw	a3,-48(s0)
   11f5c:	fce42623          	sw	a4,-52(s0)
	// The logging level may be set either by a LOG_LEVEL #define
	// (which is code generated based on the logging target property)
	// or by a register_print_function() call. Honor both. If neither
	// has been set, then assume LOG_LEVEL_INFO. If both have been set,
	// then honor the maximum.
	int print_level = -1;
   11f60:	fff00793          	li	a5,-1
   11f64:	fef42623          	sw	a5,-20(s0)
#ifdef LOG_LEVEL
	print_level = LOG_LEVEL;
   11f68:	00200793          	li	a5,2
   11f6c:	fef42623          	sw	a5,-20(s0)
#endif
	if (print_level < print_message_level) {
   11f70:	2541a783          	lw	a5,596(gp) # 34e44 <print_message_level>
   11f74:	fec42703          	lw	a4,-20(s0)
   11f78:	00f75663          	bge	a4,a5,11f84 <_lf_message_print+0x4c>
		print_level = print_message_level;
   11f7c:	2541a783          	lw	a5,596(gp) # 34e44 <print_message_level>
   11f80:	fef42623          	sw	a5,-20(s0)
	}
	if (print_level < 0) {
   11f84:	fec42783          	lw	a5,-20(s0)
   11f88:	0007d663          	bgez	a5,11f94 <_lf_message_print+0x5c>
		// Neither has been set.
		print_level = LOG_LEVEL_INFO;
   11f8c:	00200793          	li	a5,2
   11f90:	fef42623          	sw	a5,-20(s0)
	}
	if (log_level <= print_level) {
   11f94:	fcc42703          	lw	a4,-52(s0)
   11f98:	fec42783          	lw	a5,-20(s0)
   11f9c:	0ee7c463          	blt	a5,a4,12084 <_lf_message_print+0x14c>
		// Rather than calling printf() multiple times, we need to call it just
		// once because this function is invoked by multiple threads.
		// If we make multiple calls to printf(), then the results could be
		// interleaved between threads.
		// vprintf() is a version that takes an arg list rather than multiple args.
		size_t length = strlen(prefix) + strlen(format) + 32;
   11fa0:	fd842503          	lw	a0,-40(s0)
   11fa4:	098080ef          	jal	ra,1a03c <strlen>
   11fa8:	00050493          	mv	s1,a0
   11fac:	fd442503          	lw	a0,-44(s0)
   11fb0:	08c080ef          	jal	ra,1a03c <strlen>
   11fb4:	00050793          	mv	a5,a0
   11fb8:	00f487b3          	add	a5,s1,a5
   11fbc:	02078793          	addi	a5,a5,32
   11fc0:	fef42423          	sw	a5,-24(s0)
		char* message = (char*) malloc(length + 1);
   11fc4:	fe842783          	lw	a5,-24(s0)
   11fc8:	00178793          	addi	a5,a5,1
   11fcc:	00078513          	mv	a0,a5
   11fd0:	408040ef          	jal	ra,163d8 <malloc>
   11fd4:	00050793          	mv	a5,a0
   11fd8:	fef42223          	sw	a5,-28(s0)
		if (_lf_my_fed_id < 0) {
   11fdc:	2501a783          	lw	a5,592(gp) # 34e40 <_lf_my_fed_id>
   11fe0:	0207d263          	bgez	a5,12004 <_lf_message_print+0xcc>
			snprintf(message, length, "%s%s\n",
   11fe4:	fd442703          	lw	a4,-44(s0)
   11fe8:	fd842683          	lw	a3,-40(s0)
   11fec:	000317b7          	lui	a5,0x31
   11ff0:	56878613          	addi	a2,a5,1384 # 31568 <_exit+0x184>
   11ff4:	fe842583          	lw	a1,-24(s0)
   11ff8:	fe442503          	lw	a0,-28(s0)
   11ffc:	480040ef          	jal	ra,1647c <snprintf>
   12000:	0240006f          	j	12024 <_lf_message_print+0xec>
					prefix, format);
		} else {
			snprintf(message, length, "Federate %d: %s%s\n",
   12004:	2501a683          	lw	a3,592(gp) # 34e40 <_lf_my_fed_id>
   12008:	fd442783          	lw	a5,-44(s0)
   1200c:	fd842703          	lw	a4,-40(s0)
   12010:	00031637          	lui	a2,0x31
   12014:	57060613          	addi	a2,a2,1392 # 31570 <_exit+0x18c>
   12018:	fe842583          	lw	a1,-24(s0)
   1201c:	fe442503          	lw	a0,-28(s0)
   12020:	45c040ef          	jal	ra,1647c <snprintf>
					_lf_my_fed_id, prefix, format);
		}
		if (print_message_function == NULL) {
   12024:	2a81a783          	lw	a5,680(gp) # 34e98 <print_message_function>
   12028:	04079263          	bnez	a5,1206c <_lf_message_print+0x134>
			if (is_error) {
   1202c:	fdc42783          	lw	a5,-36(s0)
   12030:	02078063          	beqz	a5,12050 <_lf_message_print+0x118>
				vfprintf(stderr, message, args);
   12034:	26c1a783          	lw	a5,620(gp) # 34e5c <_impure_ptr>
   12038:	00c7a783          	lw	a5,12(a5)
   1203c:	fd042603          	lw	a2,-48(s0)
   12040:	fe442583          	lw	a1,-28(s0)
   12044:	00078513          	mv	a0,a5
   12048:	0f10f0ef          	jal	ra,21938 <vfprintf>
   1204c:	0300006f          	j	1207c <_lf_message_print+0x144>
			} else {
				vfprintf(stdout, message, args);
   12050:	26c1a783          	lw	a5,620(gp) # 34e5c <_impure_ptr>
   12054:	0087a783          	lw	a5,8(a5)
   12058:	fd042603          	lw	a2,-48(s0)
   1205c:	fe442583          	lw	a1,-28(s0)
   12060:	00078513          	mv	a0,a5
   12064:	0d50f0ef          	jal	ra,21938 <vfprintf>
   12068:	0140006f          	j	1207c <_lf_message_print+0x144>
			}
		} else {
			(*print_message_function)(message, args);
   1206c:	2a81a783          	lw	a5,680(gp) # 34e98 <print_message_function>
   12070:	fd042583          	lw	a1,-48(s0)
   12074:	fe442503          	lw	a0,-28(s0)
   12078:	000780e7          	jalr	a5
		}
		free(message);
   1207c:	fe442503          	lw	a0,-28(s0)
   12080:	38c040ef          	jal	ra,1640c <free>
	}
}
   12084:	00000013          	nop
   12088:	03c12083          	lw	ra,60(sp)
   1208c:	03812403          	lw	s0,56(sp)
   12090:	03412483          	lw	s1,52(sp)
   12094:	04010113          	addi	sp,sp,64
   12098:	00008067          	ret

0001209c <info_print>:
 * If this execution is federated, then
 * the message will be prefaced by "Federate n: ",
 * where n is the federate ID.
 * The arguments are just like printf().
 */
void info_print(char* format, ...) {
   1209c:	fb010113          	addi	sp,sp,-80
   120a0:	02112623          	sw	ra,44(sp)
   120a4:	02812423          	sw	s0,40(sp)
   120a8:	03010413          	addi	s0,sp,48
   120ac:	fca42e23          	sw	a0,-36(s0)
   120b0:	00b42223          	sw	a1,4(s0)
   120b4:	00c42423          	sw	a2,8(s0)
   120b8:	00d42623          	sw	a3,12(s0)
   120bc:	00e42823          	sw	a4,16(s0)
   120c0:	00f42a23          	sw	a5,20(s0)
   120c4:	01042c23          	sw	a6,24(s0)
   120c8:	01142e23          	sw	a7,28(s0)
    va_list args;
    va_start (args, format);
   120cc:	02040793          	addi	a5,s0,32
   120d0:	fcf42c23          	sw	a5,-40(s0)
   120d4:	fd842783          	lw	a5,-40(s0)
   120d8:	fe478793          	addi	a5,a5,-28
   120dc:	fef42623          	sw	a5,-20(s0)
    _lf_message_print(0, "", format, args, LOG_LEVEL_INFO);
   120e0:	fec42783          	lw	a5,-20(s0)
   120e4:	00200713          	li	a4,2
   120e8:	00078693          	mv	a3,a5
   120ec:	fdc42603          	lw	a2,-36(s0)
   120f0:	000317b7          	lui	a5,0x31
   120f4:	58478593          	addi	a1,a5,1412 # 31584 <_exit+0x1a0>
   120f8:	00000513          	li	a0,0
   120fc:	e3dff0ef          	jal	ra,11f38 <_lf_message_print>
    va_end (args);
}
   12100:	00000013          	nop
   12104:	02c12083          	lw	ra,44(sp)
   12108:	02812403          	lw	s0,40(sp)
   1210c:	05010113          	addi	sp,sp,80
   12110:	00008067          	ret

00012114 <log_print>:
 * at the end. If this execution is federated, then
 * the message will be prefaced by "Federate n: ",
 * where n is the federate ID.
 * The arguments are just like printf().
 */
void log_print(char* format, ...) {
   12114:	fb010113          	addi	sp,sp,-80
   12118:	02112623          	sw	ra,44(sp)
   1211c:	02812423          	sw	s0,40(sp)
   12120:	03010413          	addi	s0,sp,48
   12124:	fca42e23          	sw	a0,-36(s0)
   12128:	00b42223          	sw	a1,4(s0)
   1212c:	00c42423          	sw	a2,8(s0)
   12130:	00d42623          	sw	a3,12(s0)
   12134:	00e42823          	sw	a4,16(s0)
   12138:	00f42a23          	sw	a5,20(s0)
   1213c:	01042c23          	sw	a6,24(s0)
   12140:	01142e23          	sw	a7,28(s0)
    va_list args;
    va_start (args, format);
   12144:	02040793          	addi	a5,s0,32
   12148:	fcf42c23          	sw	a5,-40(s0)
   1214c:	fd842783          	lw	a5,-40(s0)
   12150:	fe478793          	addi	a5,a5,-28
   12154:	fef42623          	sw	a5,-20(s0)
    _lf_message_print(0, "LOG: ", format, args, LOG_LEVEL_LOG);
   12158:	fec42783          	lw	a5,-20(s0)
   1215c:	00300713          	li	a4,3
   12160:	00078693          	mv	a3,a5
   12164:	fdc42603          	lw	a2,-36(s0)
   12168:	000317b7          	lui	a5,0x31
   1216c:	58878593          	addi	a1,a5,1416 # 31588 <_exit+0x1a4>
   12170:	00000513          	li	a0,0
   12174:	dc5ff0ef          	jal	ra,11f38 <_lf_message_print>
    va_end (args);
}
   12178:	00000013          	nop
   1217c:	02c12083          	lw	ra,44(sp)
   12180:	02812403          	lw	s0,40(sp)
   12184:	05010113          	addi	sp,sp,80
   12188:	00008067          	ret

0001218c <debug_print>:
 * at the end. If this execution is federated, then
 * the message will be prefaced by "Federate n: ",
 * where n is the federate ID.
 * The arguments are just like printf().
 */
void debug_print(char* format, ...) {
   1218c:	fb010113          	addi	sp,sp,-80
   12190:	02112623          	sw	ra,44(sp)
   12194:	02812423          	sw	s0,40(sp)
   12198:	03010413          	addi	s0,sp,48
   1219c:	fca42e23          	sw	a0,-36(s0)
   121a0:	00b42223          	sw	a1,4(s0)
   121a4:	00c42423          	sw	a2,8(s0)
   121a8:	00d42623          	sw	a3,12(s0)
   121ac:	00e42823          	sw	a4,16(s0)
   121b0:	00f42a23          	sw	a5,20(s0)
   121b4:	01042c23          	sw	a6,24(s0)
   121b8:	01142e23          	sw	a7,28(s0)
    va_list args;
    va_start (args, format);
   121bc:	02040793          	addi	a5,s0,32
   121c0:	fcf42c23          	sw	a5,-40(s0)
   121c4:	fd842783          	lw	a5,-40(s0)
   121c8:	fe478793          	addi	a5,a5,-28
   121cc:	fef42623          	sw	a5,-20(s0)
    _lf_message_print(0, "DEBUG: ", format, args, LOG_LEVEL_DEBUG);
   121d0:	fec42783          	lw	a5,-20(s0)
   121d4:	00400713          	li	a4,4
   121d8:	00078693          	mv	a3,a5
   121dc:	fdc42603          	lw	a2,-36(s0)
   121e0:	000317b7          	lui	a5,0x31
   121e4:	59078593          	addi	a1,a5,1424 # 31590 <_exit+0x1ac>
   121e8:	00000513          	li	a0,0
   121ec:	d4dff0ef          	jal	ra,11f38 <_lf_message_print>
    va_end (args);
}
   121f0:	00000013          	nop
   121f4:	02c12083          	lw	ra,44(sp)
   121f8:	02812403          	lw	s0,40(sp)
   121fc:	05010113          	addi	sp,sp,80
   12200:	00008067          	ret

00012204 <error_print>:

/**
 * Report an error with the prefix "ERROR: " and a newline appended
 * at the end.  The arguments are just like printf().
 */
void error_print(char* format, ...) {
   12204:	fb010113          	addi	sp,sp,-80
   12208:	02112623          	sw	ra,44(sp)
   1220c:	02812423          	sw	s0,40(sp)
   12210:	03010413          	addi	s0,sp,48
   12214:	fca42e23          	sw	a0,-36(s0)
   12218:	00b42223          	sw	a1,4(s0)
   1221c:	00c42423          	sw	a2,8(s0)
   12220:	00d42623          	sw	a3,12(s0)
   12224:	00e42823          	sw	a4,16(s0)
   12228:	00f42a23          	sw	a5,20(s0)
   1222c:	01042c23          	sw	a6,24(s0)
   12230:	01142e23          	sw	a7,28(s0)
    va_list args;
    va_start (args, format);
   12234:	02040793          	addi	a5,s0,32
   12238:	fcf42c23          	sw	a5,-40(s0)
   1223c:	fd842783          	lw	a5,-40(s0)
   12240:	fe478793          	addi	a5,a5,-28
   12244:	fef42623          	sw	a5,-20(s0)
    _lf_message_print(1, "ERROR: ", format, args, LOG_LEVEL_ERROR);
   12248:	fec42783          	lw	a5,-20(s0)
   1224c:	00000713          	li	a4,0
   12250:	00078693          	mv	a3,a5
   12254:	fdc42603          	lw	a2,-36(s0)
   12258:	000317b7          	lui	a5,0x31
   1225c:	59878593          	addi	a1,a5,1432 # 31598 <_exit+0x1b4>
   12260:	00100513          	li	a0,1
   12264:	cd5ff0ef          	jal	ra,11f38 <_lf_message_print>
    va_end (args);
}
   12268:	00000013          	nop
   1226c:	02c12083          	lw	ra,44(sp)
   12270:	02812403          	lw	s0,40(sp)
   12274:	05010113          	addi	sp,sp,80
   12278:	00008067          	ret

0001227c <warning_print>:

/**
 * Report a warning with the prefix "WARNING: " and a newline appended
 * at the end.  The arguments are just like printf().
 */
void warning_print(char* format, ...) {
   1227c:	fb010113          	addi	sp,sp,-80
   12280:	02112623          	sw	ra,44(sp)
   12284:	02812423          	sw	s0,40(sp)
   12288:	03010413          	addi	s0,sp,48
   1228c:	fca42e23          	sw	a0,-36(s0)
   12290:	00b42223          	sw	a1,4(s0)
   12294:	00c42423          	sw	a2,8(s0)
   12298:	00d42623          	sw	a3,12(s0)
   1229c:	00e42823          	sw	a4,16(s0)
   122a0:	00f42a23          	sw	a5,20(s0)
   122a4:	01042c23          	sw	a6,24(s0)
   122a8:	01142e23          	sw	a7,28(s0)
    va_list args;
    va_start (args, format);
   122ac:	02040793          	addi	a5,s0,32
   122b0:	fcf42c23          	sw	a5,-40(s0)
   122b4:	fd842783          	lw	a5,-40(s0)
   122b8:	fe478793          	addi	a5,a5,-28
   122bc:	fef42623          	sw	a5,-20(s0)
    _lf_message_print(1, "WARNING: ", format, args, LOG_LEVEL_WARNING);
   122c0:	fec42783          	lw	a5,-20(s0)
   122c4:	00100713          	li	a4,1
   122c8:	00078693          	mv	a3,a5
   122cc:	fdc42603          	lw	a2,-36(s0)
   122d0:	000317b7          	lui	a5,0x31
   122d4:	5a078593          	addi	a1,a5,1440 # 315a0 <_exit+0x1bc>
   122d8:	00100513          	li	a0,1
   122dc:	c5dff0ef          	jal	ra,11f38 <_lf_message_print>
    va_end (args);
}
   122e0:	00000013          	nop
   122e4:	02c12083          	lw	ra,44(sp)
   122e8:	02812403          	lw	s0,40(sp)
   122ec:	05010113          	addi	sp,sp,80
   122f0:	00008067          	ret

000122f4 <error_print_and_exit>:
/**
 * Report an error with the prefix "ERROR: " and a newline appended
 * at the end, then exit with the failure code EXIT_FAILURE.
 * The arguments are just like printf().
 */
void error_print_and_exit(char* format, ...) {
   122f4:	fb010113          	addi	sp,sp,-80
   122f8:	02112623          	sw	ra,44(sp)
   122fc:	02812423          	sw	s0,40(sp)
   12300:	03010413          	addi	s0,sp,48
   12304:	fca42e23          	sw	a0,-36(s0)
   12308:	00b42223          	sw	a1,4(s0)
   1230c:	00c42423          	sw	a2,8(s0)
   12310:	00d42623          	sw	a3,12(s0)
   12314:	00e42823          	sw	a4,16(s0)
   12318:	00f42a23          	sw	a5,20(s0)
   1231c:	01042c23          	sw	a6,24(s0)
   12320:	01142e23          	sw	a7,28(s0)
    va_list args;
    va_start (args, format);
   12324:	02040793          	addi	a5,s0,32
   12328:	fcf42c23          	sw	a5,-40(s0)
   1232c:	fd842783          	lw	a5,-40(s0)
   12330:	fe478793          	addi	a5,a5,-28
   12334:	fef42623          	sw	a5,-20(s0)
    _lf_message_print(1, "FATAL ERROR: ", format, args, LOG_LEVEL_ERROR);
   12338:	fec42783          	lw	a5,-20(s0)
   1233c:	00000713          	li	a4,0
   12340:	00078693          	mv	a3,a5
   12344:	fdc42603          	lw	a2,-36(s0)
   12348:	000317b7          	lui	a5,0x31
   1234c:	5ac78593          	addi	a1,a5,1452 # 315ac <_exit+0x1c8>
   12350:	00100513          	li	a0,1
   12354:	be5ff0ef          	jal	ra,11f38 <_lf_message_print>
    va_end (args);
    exit(EXIT_FAILURE);
   12358:	00100513          	li	a0,1
   1235c:	d19fd0ef          	jal	ra,10074 <exit>

00012360 <register_print_function>:
 *
 * @param function The print message function or NULL to revert
 *  to using printf.
 * @param log_level The level of messages to redirect.
 */
void register_print_function(print_message_function_t* function, int log_level) {
   12360:	fe010113          	addi	sp,sp,-32
   12364:	00812e23          	sw	s0,28(sp)
   12368:	02010413          	addi	s0,sp,32
   1236c:	fea42623          	sw	a0,-20(s0)
   12370:	feb42423          	sw	a1,-24(s0)
    print_message_function = function;
   12374:	fec42703          	lw	a4,-20(s0)
   12378:	2ae1a423          	sw	a4,680(gp) # 34e98 <print_message_function>
    print_message_level = log_level;
   1237c:	fe842703          	lw	a4,-24(s0)
   12380:	24e1aa23          	sw	a4,596(gp) # 34e44 <print_message_level>
}
   12384:	00000013          	nop
   12388:	01c12403          	lw	s0,28(sp)
   1238c:	02010113          	addi	sp,sp,32
   12390:	00008067          	ret

00012394 <_lf_allocate>:
 * @param size The size of each item.
 * @param head Pointer to the head of a list on which to record
 *  the allocation, or NULL to not record it.
 */
void* _lf_allocate(
		size_t count, size_t size, struct allocation_record_t** head) {
   12394:	fd010113          	addi	sp,sp,-48
   12398:	02112623          	sw	ra,44(sp)
   1239c:	02812423          	sw	s0,40(sp)
   123a0:	03010413          	addi	s0,sp,48
   123a4:	fca42e23          	sw	a0,-36(s0)
   123a8:	fcb42c23          	sw	a1,-40(s0)
   123ac:	fcc42a23          	sw	a2,-44(s0)
	void *mem = calloc(count, size);
   123b0:	fd842583          	lw	a1,-40(s0)
   123b4:	fdc42503          	lw	a0,-36(s0)
   123b8:	619050ef          	jal	ra,181d0 <calloc>
   123bc:	00050793          	mv	a5,a0
   123c0:	fef42623          	sw	a5,-20(s0)
    if (mem == NULL) error_print_and_exit("Out of memory!");
   123c4:	fec42783          	lw	a5,-20(s0)
   123c8:	00079863          	bnez	a5,123d8 <_lf_allocate+0x44>
   123cc:	000317b7          	lui	a5,0x31
   123d0:	5bc78513          	addi	a0,a5,1468 # 315bc <_exit+0x1d8>
   123d4:	f21ff0ef          	jal	ra,122f4 <error_print_and_exit>
	if (head != NULL) {
   123d8:	fd442783          	lw	a5,-44(s0)
   123dc:	04078e63          	beqz	a5,12438 <_lf_allocate+0xa4>
		struct allocation_record_t* record
				= (allocation_record_t*)calloc(1, sizeof(allocation_record_t));
   123e0:	00800593          	li	a1,8
   123e4:	00100513          	li	a0,1
   123e8:	5e9050ef          	jal	ra,181d0 <calloc>
   123ec:	00050793          	mv	a5,a0
   123f0:	fef42423          	sw	a5,-24(s0)
		if (record == NULL) error_print_and_exit("Out of memory!");
   123f4:	fe842783          	lw	a5,-24(s0)
   123f8:	00079863          	bnez	a5,12408 <_lf_allocate+0x74>
   123fc:	000317b7          	lui	a5,0x31
   12400:	5bc78513          	addi	a0,a5,1468 # 315bc <_exit+0x1d8>
   12404:	ef1ff0ef          	jal	ra,122f4 <error_print_and_exit>
		record->allocated = mem;
   12408:	fe842783          	lw	a5,-24(s0)
   1240c:	fec42703          	lw	a4,-20(s0)
   12410:	00e7a023          	sw	a4,0(a5)
		allocation_record_t* tmp = *head; // Previous head of the list or NULL.
   12414:	fd442783          	lw	a5,-44(s0)
   12418:	0007a783          	lw	a5,0(a5)
   1241c:	fef42223          	sw	a5,-28(s0)
		*head = record;                   // New head of the list.
   12420:	fd442783          	lw	a5,-44(s0)
   12424:	fe842703          	lw	a4,-24(s0)
   12428:	00e7a023          	sw	a4,0(a5)
		record->next = tmp;
   1242c:	fe842783          	lw	a5,-24(s0)
   12430:	fe442703          	lw	a4,-28(s0)
   12434:	00e7a223          	sw	a4,4(a5)
	}
	return mem;
   12438:	fec42783          	lw	a5,-20(s0)
}
   1243c:	00078513          	mv	a0,a5
   12440:	02c12083          	lw	ra,44(sp)
   12444:	02812403          	lw	s0,40(sp)
   12448:	03010113          	addi	sp,sp,48
   1244c:	00008067          	ret

00012450 <_lf_new_reactor>:
 * This records the reactor on the list of reactors to be freed at
 * termination of the program. If you plan to free the reactor before
 * termination of the program, use calloc instead (which this uses).
 * @param size The size of the self struct, obtained with sizeof().
 */
void* _lf_new_reactor(size_t size) {
   12450:	fe010113          	addi	sp,sp,-32
   12454:	00112e23          	sw	ra,28(sp)
   12458:	00812c23          	sw	s0,24(sp)
   1245c:	02010413          	addi	s0,sp,32
   12460:	fea42623          	sw	a0,-20(s0)
	return _lf_allocate(1, size, &_lf_reactors_to_free);
   12464:	2e818613          	addi	a2,gp,744 # 34ed8 <_lf_reactors_to_free>
   12468:	fec42583          	lw	a1,-20(s0)
   1246c:	00100513          	li	a0,1
   12470:	f25ff0ef          	jal	ra,12394 <_lf_allocate>
   12474:	00050793          	mv	a5,a0
}
   12478:	00078513          	mv	a0,a5
   1247c:	01c12083          	lw	ra,28(sp)
   12480:	01812403          	lw	s0,24(sp)
   12484:	02010113          	addi	sp,sp,32
   12488:	00008067          	ret

0001248c <_lf_free>:
 * {@link _lf_allocate(size_t, size_t, allocation_record_t**)}
 * and mark the list empty by setting `*head` to NULL.
 * @param head Pointer to the head of a list on which to record
 *  the allocation, or NULL to not record it.
 */
void _lf_free(struct allocation_record_t** head) {
   1248c:	fd010113          	addi	sp,sp,-48
   12490:	02112623          	sw	ra,44(sp)
   12494:	02812423          	sw	s0,40(sp)
   12498:	03010413          	addi	s0,sp,48
   1249c:	fca42e23          	sw	a0,-36(s0)
	if (head == NULL) return;
   124a0:	fdc42783          	lw	a5,-36(s0)
   124a4:	04078a63          	beqz	a5,124f8 <_lf_free+0x6c>
	struct allocation_record_t* record = *head;
   124a8:	fdc42783          	lw	a5,-36(s0)
   124ac:	0007a783          	lw	a5,0(a5)
   124b0:	fef42623          	sw	a5,-20(s0)
	while (record != NULL) {
   124b4:	0300006f          	j	124e4 <_lf_free+0x58>
		free(record->allocated);
   124b8:	fec42783          	lw	a5,-20(s0)
   124bc:	0007a783          	lw	a5,0(a5)
   124c0:	00078513          	mv	a0,a5
   124c4:	749030ef          	jal	ra,1640c <free>
		struct allocation_record_t* tmp = record->next;
   124c8:	fec42783          	lw	a5,-20(s0)
   124cc:	0047a783          	lw	a5,4(a5)
   124d0:	fef42423          	sw	a5,-24(s0)
		free(record);
   124d4:	fec42503          	lw	a0,-20(s0)
   124d8:	735030ef          	jal	ra,1640c <free>
		record = tmp;
   124dc:	fe842783          	lw	a5,-24(s0)
   124e0:	fef42623          	sw	a5,-20(s0)
	while (record != NULL) {
   124e4:	fec42783          	lw	a5,-20(s0)
   124e8:	fc0798e3          	bnez	a5,124b8 <_lf_free+0x2c>
	}
	*head = NULL;
   124ec:	fdc42783          	lw	a5,-36(s0)
   124f0:	0007a023          	sw	zero,0(a5)
   124f4:	0080006f          	j	124fc <_lf_free+0x70>
	if (head == NULL) return;
   124f8:	00000013          	nop
}
   124fc:	02c12083          	lw	ra,44(sp)
   12500:	02812403          	lw	s0,40(sp)
   12504:	03010113          	addi	sp,sp,48
   12508:	00008067          	ret

0001250c <_lf_free_reactor>:
/**
 * Free memory recorded on the allocations list of the specified reactor
 * and then free the specified self struct.
 * @param self The self struct of the reactor.
 */
void _lf_free_reactor(struct self_base_t *self) {
   1250c:	fe010113          	addi	sp,sp,-32
   12510:	00112e23          	sw	ra,28(sp)
   12514:	00812c23          	sw	s0,24(sp)
   12518:	02010413          	addi	s0,sp,32
   1251c:	fea42623          	sw	a0,-20(s0)
	_lf_free(&self->allocations);
   12520:	fec42783          	lw	a5,-20(s0)
   12524:	00078513          	mv	a0,a5
   12528:	f65ff0ef          	jal	ra,1248c <_lf_free>
	free(self);
   1252c:	fec42503          	lw	a0,-20(s0)
   12530:	6dd030ef          	jal	ra,1640c <free>
}
   12534:	00000013          	nop
   12538:	01c12083          	lw	ra,28(sp)
   1253c:	01812403          	lw	s0,24(sp)
   12540:	02010113          	addi	sp,sp,32
   12544:	00008067          	ret

00012548 <_lf_free_all_reactors>:

/**
 * Free all the reactors that are allocated with
 * {@link #_lf_new_reactor(size_t)}.
 */
void _lf_free_all_reactors() {
   12548:	fe010113          	addi	sp,sp,-32
   1254c:	00112e23          	sw	ra,28(sp)
   12550:	00812c23          	sw	s0,24(sp)
   12554:	02010413          	addi	s0,sp,32
	struct allocation_record_t* head = _lf_reactors_to_free;
   12558:	2e81a783          	lw	a5,744(gp) # 34ed8 <_lf_reactors_to_free>
   1255c:	fef42623          	sw	a5,-20(s0)
	while (head != NULL) {
   12560:	0300006f          	j	12590 <_lf_free_all_reactors+0x48>
		_lf_free_reactor((self_base_t*)head->allocated);
   12564:	fec42783          	lw	a5,-20(s0)
   12568:	0007a783          	lw	a5,0(a5)
   1256c:	00078513          	mv	a0,a5
   12570:	f9dff0ef          	jal	ra,1250c <_lf_free_reactor>
		struct allocation_record_t* tmp = head->next;
   12574:	fec42783          	lw	a5,-20(s0)
   12578:	0047a783          	lw	a5,4(a5)
   1257c:	fef42423          	sw	a5,-24(s0)
		free(head);
   12580:	fec42503          	lw	a0,-20(s0)
   12584:	689030ef          	jal	ra,1640c <free>
		head = tmp;
   12588:	fe842783          	lw	a5,-24(s0)
   1258c:	fef42623          	sw	a5,-20(s0)
	while (head != NULL) {
   12590:	fec42783          	lw	a5,-20(s0)
   12594:	fc0798e3          	bnez	a5,12564 <_lf_free_all_reactors+0x1c>
	}
	_lf_reactors_to_free = NULL;
   12598:	2e01a423          	sw	zero,744(gp) # 34ed8 <_lf_reactors_to_free>
}
   1259c:	00000013          	nop
   125a0:	01c12083          	lw	ra,28(sp)
   125a4:	01812403          	lw	s0,24(sp)
   125a8:	02010113          	addi	sp,sp,32
   125ac:	00008067          	ret

000125b0 <_lf_set_stop_tag>:
 * of the provided tag and stop_tag
 * 
 * @note In threaded programs, the mutex must be locked before
 *  calling this function.
 */
void _lf_set_stop_tag(tag_t tag) {
   125b0:	fd010113          	addi	sp,sp,-48
   125b4:	02112623          	sw	ra,44(sp)
   125b8:	02812423          	sw	s0,40(sp)
   125bc:	02912223          	sw	s1,36(sp)
   125c0:	03010413          	addi	s0,sp,48
   125c4:	00050493          	mv	s1,a0
    if (compare_tags(tag, stop_tag) < 0) {
   125c8:	0004a603          	lw	a2,0(s1)
   125cc:	0044a683          	lw	a3,4(s1)
   125d0:	0084a703          	lw	a4,8(s1)
   125d4:	00c4a783          	lw	a5,12(s1)
   125d8:	fec42023          	sw	a2,-32(s0)
   125dc:	fed42223          	sw	a3,-28(s0)
   125e0:	fee42423          	sw	a4,-24(s0)
   125e4:	fef42623          	sw	a5,-20(s0)
   125e8:	000347b7          	lui	a5,0x34
   125ec:	3f078793          	addi	a5,a5,1008 # 343f0 <stop_tag>
   125f0:	0007a603          	lw	a2,0(a5)
   125f4:	0047a683          	lw	a3,4(a5)
   125f8:	0087a703          	lw	a4,8(a5)
   125fc:	00c7a783          	lw	a5,12(a5)
   12600:	fcc42823          	sw	a2,-48(s0)
   12604:	fcd42a23          	sw	a3,-44(s0)
   12608:	fce42c23          	sw	a4,-40(s0)
   1260c:	fcf42e23          	sw	a5,-36(s0)
   12610:	fd040713          	addi	a4,s0,-48
   12614:	fe040793          	addi	a5,s0,-32
   12618:	00070593          	mv	a1,a4
   1261c:	00078513          	mv	a0,a5
   12620:	ab5fd0ef          	jal	ra,100d4 <compare_tags>
   12624:	00050793          	mv	a5,a0
   12628:	0207d663          	bgez	a5,12654 <_lf_set_stop_tag+0xa4>
        stop_tag = tag;
   1262c:	000347b7          	lui	a5,0x34
   12630:	3f078793          	addi	a5,a5,1008 # 343f0 <stop_tag>
   12634:	0004a583          	lw	a1,0(s1)
   12638:	0044a603          	lw	a2,4(s1)
   1263c:	0084a683          	lw	a3,8(s1)
   12640:	00c4a703          	lw	a4,12(s1)
   12644:	00b7a023          	sw	a1,0(a5)
   12648:	00c7a223          	sw	a2,4(a5)
   1264c:	00d7a423          	sw	a3,8(a5)
   12650:	00e7a623          	sw	a4,12(a5)
    }
}
   12654:	00000013          	nop
   12658:	02c12083          	lw	ra,44(sp)
   1265c:	02812403          	lw	s0,40(sp)
   12660:	02412483          	lw	s1,36(sp)
   12664:	03010113          	addi	sp,sp,48
   12668:	00008067          	ret

0001266c <get_stp_offset>:

/**
 * Return the global STP offset on advancement of logical
 * time for federated execution.
 */
interval_t get_stp_offset() {
   1266c:	ff010113          	addi	sp,sp,-16
   12670:	00812623          	sw	s0,12(sp)
   12674:	01010413          	addi	s0,sp,16
    return _lf_global_time_STP_offset;
   12678:	2e01a703          	lw	a4,736(gp) # 34ed0 <_lf_global_time_STP_offset>
   1267c:	2e41a783          	lw	a5,740(gp) # 34ed4 <_lf_global_time_STP_offset+0x4>
}
   12680:	00070513          	mv	a0,a4
   12684:	00078593          	mv	a1,a5
   12688:	00c12403          	lw	s0,12(sp)
   1268c:	01010113          	addi	sp,sp,16
   12690:	00008067          	ret

00012694 <set_stp_offset>:
 * time for federated execution.
 * 
 * @param offset A positive time value to be applied
 *  as the STP offset.
 */
void set_stp_offset(interval_t offset) {
   12694:	fe010113          	addi	sp,sp,-32
   12698:	00812e23          	sw	s0,28(sp)
   1269c:	02010413          	addi	s0,sp,32
   126a0:	fea42423          	sw	a0,-24(s0)
   126a4:	feb42623          	sw	a1,-20(s0)
    if (offset > 0LL) {
   126a8:	fec42783          	lw	a5,-20(s0)
   126ac:	00f04c63          	bgtz	a5,126c4 <set_stp_offset+0x30>
   126b0:	fec42783          	lw	a5,-20(s0)
   126b4:	02079063          	bnez	a5,126d4 <set_stp_offset+0x40>
   126b8:	fe842783          	lw	a5,-24(s0)
   126bc:	00079463          	bnez	a5,126c4 <set_stp_offset+0x30>
        _lf_global_time_STP_offset = offset;
    }
}
   126c0:	0140006f          	j	126d4 <set_stp_offset+0x40>
        _lf_global_time_STP_offset = offset;
   126c4:	fe842703          	lw	a4,-24(s0)
   126c8:	fec42783          	lw	a5,-20(s0)
   126cc:	2ee1a023          	sw	a4,736(gp) # 34ed0 <_lf_global_time_STP_offset>
   126d0:	2ef1a223          	sw	a5,740(gp) # 34ed4 <_lf_global_time_STP_offset+0x4>
}
   126d4:	00000013          	nop
   126d8:	01c12403          	lw	s0,28(sp)
   126dc:	02010113          	addi	sp,sp,32
   126e0:	00008067          	ret

000126e4 <in_reverse_order>:
// ********** Priority Queue Support Start

/**
 * Return whether the first and second argument are given in reverse order.
 */
static int in_reverse_order(pqueue_pri_t thiz, pqueue_pri_t that) {
   126e4:	fe010113          	addi	sp,sp,-32
   126e8:	00812e23          	sw	s0,28(sp)
   126ec:	02010413          	addi	s0,sp,32
   126f0:	fea42423          	sw	a0,-24(s0)
   126f4:	feb42623          	sw	a1,-20(s0)
   126f8:	fec42023          	sw	a2,-32(s0)
   126fc:	fed42223          	sw	a3,-28(s0)
    return (thiz > that);
   12700:	00100693          	li	a3,1
   12704:	fec42703          	lw	a4,-20(s0)
   12708:	fe442783          	lw	a5,-28(s0)
   1270c:	02e7e063          	bltu	a5,a4,1272c <in_reverse_order+0x48>
   12710:	fec42703          	lw	a4,-20(s0)
   12714:	fe442783          	lw	a5,-28(s0)
   12718:	00f71863          	bne	a4,a5,12728 <in_reverse_order+0x44>
   1271c:	fe842703          	lw	a4,-24(s0)
   12720:	fe042783          	lw	a5,-32(s0)
   12724:	00e7e463          	bltu	a5,a4,1272c <in_reverse_order+0x48>
   12728:	00000693          	li	a3,0
   1272c:	0ff6f793          	andi	a5,a3,255
}
   12730:	00078513          	mv	a0,a5
   12734:	01c12403          	lw	s0,28(sp)
   12738:	02010113          	addi	sp,sp,32
   1273c:	00008067          	ret

00012740 <in_no_particular_order>:

/**
 * Return whether the first and second argument are given in reverse order.
 */
static int in_no_particular_order(pqueue_pri_t thiz, pqueue_pri_t that) {
   12740:	fe010113          	addi	sp,sp,-32
   12744:	00812e23          	sw	s0,28(sp)
   12748:	02010413          	addi	s0,sp,32
   1274c:	fea42423          	sw	a0,-24(s0)
   12750:	feb42623          	sw	a1,-20(s0)
   12754:	fec42023          	sw	a2,-32(s0)
   12758:	fed42223          	sw	a3,-28(s0)
    return false;
   1275c:	00000793          	li	a5,0
}
   12760:	00078513          	mv	a0,a5
   12764:	01c12403          	lw	s0,28(sp)
   12768:	02010113          	addi	sp,sp,32
   1276c:	00008067          	ret

00012770 <event_matches>:

/**
 * Return whether or not the given events have matching triggers.
 */
static int event_matches(void* next, void* curr) {
   12770:	fe010113          	addi	sp,sp,-32
   12774:	00812e23          	sw	s0,28(sp)
   12778:	02010413          	addi	s0,sp,32
   1277c:	fea42623          	sw	a0,-20(s0)
   12780:	feb42423          	sw	a1,-24(s0)
    return (((event_t*)next)->trigger == ((event_t*)curr)->trigger);
   12784:	fec42783          	lw	a5,-20(s0)
   12788:	0087a703          	lw	a4,8(a5)
   1278c:	fe842783          	lw	a5,-24(s0)
   12790:	0087a783          	lw	a5,8(a5)
   12794:	40f707b3          	sub	a5,a4,a5
   12798:	0017b793          	seqz	a5,a5
   1279c:	0ff7f793          	andi	a5,a5,255
}
   127a0:	00078513          	mv	a0,a5
   127a4:	01c12403          	lw	s0,28(sp)
   127a8:	02010113          	addi	sp,sp,32
   127ac:	00008067          	ret

000127b0 <reaction_matches>:

/**
 * Return whether or not the given reaction_t pointers 
 * point to the same struct.
 */
static int reaction_matches(void* next, void* curr) {
   127b0:	fe010113          	addi	sp,sp,-32
   127b4:	00812e23          	sw	s0,28(sp)
   127b8:	02010413          	addi	s0,sp,32
   127bc:	fea42623          	sw	a0,-20(s0)
   127c0:	feb42423          	sw	a1,-24(s0)
    return (next == curr);
   127c4:	fec42703          	lw	a4,-20(s0)
   127c8:	fe842783          	lw	a5,-24(s0)
   127cc:	40f707b3          	sub	a5,a4,a5
   127d0:	0017b793          	seqz	a5,a5
   127d4:	0ff7f793          	andi	a5,a5,255
}
   127d8:	00078513          	mv	a0,a5
   127dc:	01c12403          	lw	s0,28(sp)
   127e0:	02010113          	addi	sp,sp,32
   127e4:	00008067          	ret

000127e8 <get_event_time>:

/**
 * Report a priority equal to the time of the given event.
 * Used for sorting pointers to event_t structs in the event queue.
 */
static pqueue_pri_t get_event_time(void *a) {
   127e8:	fe010113          	addi	sp,sp,-32
   127ec:	00812e23          	sw	s0,28(sp)
   127f0:	02010413          	addi	s0,sp,32
   127f4:	fea42623          	sw	a0,-20(s0)
    return (pqueue_pri_t)(((event_t*) a)->time);
   127f8:	fec42783          	lw	a5,-20(s0)
   127fc:	0007a703          	lw	a4,0(a5)
   12800:	0047a783          	lw	a5,4(a5)
}
   12804:	00070513          	mv	a0,a4
   12808:	00078593          	mv	a1,a5
   1280c:	01c12403          	lw	s0,28(sp)
   12810:	02010113          	addi	sp,sp,32
   12814:	00008067          	ret

00012818 <get_reaction_index>:
/**
 * Report a priority equal to the index of the given reaction.
 * Used for sorting pointers to reaction_t structs in the 
 * blocked and executing queues.
 */
static pqueue_pri_t get_reaction_index(void *a) {
   12818:	fe010113          	addi	sp,sp,-32
   1281c:	00812e23          	sw	s0,28(sp)
   12820:	02010413          	addi	s0,sp,32
   12824:	fea42623          	sw	a0,-20(s0)
    return ((reaction_t*) a)->index;
   12828:	fec42783          	lw	a5,-20(s0)
   1282c:	0107a703          	lw	a4,16(a5)
   12830:	0147a783          	lw	a5,20(a5)
}
   12834:	00070513          	mv	a0,a4
   12838:	00078593          	mv	a1,a5
   1283c:	01c12403          	lw	s0,28(sp)
   12840:	02010113          	addi	sp,sp,32
   12844:	00008067          	ret

00012848 <get_event_position>:

/**
 * Return the given event's position in the queue.
 */
static size_t get_event_position(void *a) {
   12848:	fe010113          	addi	sp,sp,-32
   1284c:	00812e23          	sw	s0,28(sp)
   12850:	02010413          	addi	s0,sp,32
   12854:	fea42623          	sw	a0,-20(s0)
    return ((event_t*) a)->pos;
   12858:	fec42783          	lw	a5,-20(s0)
   1285c:	00c7a783          	lw	a5,12(a5)
}
   12860:	00078513          	mv	a0,a5
   12864:	01c12403          	lw	s0,28(sp)
   12868:	02010113          	addi	sp,sp,32
   1286c:	00008067          	ret

00012870 <get_reaction_position>:

/**
 * Return the given reaction's position in the queue.
 */
static size_t get_reaction_position(void *a) {
   12870:	fe010113          	addi	sp,sp,-32
   12874:	00812e23          	sw	s0,28(sp)
   12878:	02010413          	addi	s0,sp,32
   1287c:	fea42623          	sw	a0,-20(s0)
    return ((reaction_t*) a)->pos;
   12880:	fec42783          	lw	a5,-20(s0)
   12884:	0207a783          	lw	a5,32(a5)
}
   12888:	00078513          	mv	a0,a5
   1288c:	01c12403          	lw	s0,28(sp)
   12890:	02010113          	addi	sp,sp,32
   12894:	00008067          	ret

00012898 <set_event_position>:

/**
 * Set the given event's position in the queue.
 */
static void set_event_position(void *a, size_t pos) {
   12898:	fe010113          	addi	sp,sp,-32
   1289c:	00812e23          	sw	s0,28(sp)
   128a0:	02010413          	addi	s0,sp,32
   128a4:	fea42623          	sw	a0,-20(s0)
   128a8:	feb42423          	sw	a1,-24(s0)
    ((event_t*) a)->pos = pos;
   128ac:	fec42783          	lw	a5,-20(s0)
   128b0:	fe842703          	lw	a4,-24(s0)
   128b4:	00e7a623          	sw	a4,12(a5)
}
   128b8:	00000013          	nop
   128bc:	01c12403          	lw	s0,28(sp)
   128c0:	02010113          	addi	sp,sp,32
   128c4:	00008067          	ret

000128c8 <set_reaction_position>:

/**
 * Return the given reaction's position in the queue.
 */
static void set_reaction_position(void *a, size_t pos) {
   128c8:	fe010113          	addi	sp,sp,-32
   128cc:	00812e23          	sw	s0,28(sp)
   128d0:	02010413          	addi	s0,sp,32
   128d4:	fea42623          	sw	a0,-20(s0)
   128d8:	feb42423          	sw	a1,-24(s0)
    ((reaction_t*) a)->pos = pos;
   128dc:	fec42783          	lw	a5,-20(s0)
   128e0:	fe842703          	lw	a4,-24(s0)
   128e4:	02e7a023          	sw	a4,32(a5)
}
   128e8:	00000013          	nop
   128ec:	01c12403          	lw	s0,28(sp)
   128f0:	02010113          	addi	sp,sp,32
   128f4:	00008067          	ret

000128f8 <print_reaction>:
/**
 * Print some information about the given reaction.
 * 
 * DEBUG function only.
 */
static void print_reaction(void *reaction) {
   128f8:	fd010113          	addi	sp,sp,-48
   128fc:	02812623          	sw	s0,44(sp)
   12900:	03010413          	addi	s0,sp,48
   12904:	fca42e23          	sw	a0,-36(s0)
	reaction_t *r = (reaction_t*)reaction;
   12908:	fdc42783          	lw	a5,-36(s0)
   1290c:	fef42623          	sw	a5,-20(s0)
    DEBUG_PRINT("%s: chain_id:%llu, index: %llx, reaction: %p",
    		r->name, r->chain_id, r->index, r);
}
   12910:	00000013          	nop
   12914:	02c12403          	lw	s0,44(sp)
   12918:	03010113          	addi	sp,sp,48
   1291c:	00008067          	ret

00012920 <print_event>:
/**
 * Print some information about the given event.
 * 
 * DEBUG function only.
 */
static void print_event(void *event) {
   12920:	fd010113          	addi	sp,sp,-48
   12924:	02812623          	sw	s0,44(sp)
   12928:	03010413          	addi	s0,sp,48
   1292c:	fca42e23          	sw	a0,-36(s0)
	event_t *e = (event_t*)event;
   12930:	fdc42783          	lw	a5,-36(s0)
   12934:	fef42623          	sw	a5,-20(s0)
    DEBUG_PRINT("time: %lld, trigger: %p, token: %p",
			e->time, e->trigger, e->token);
}
   12938:	00000013          	nop
   1293c:	02c12403          	lw	s0,44(sp)
   12940:	03010113          	addi	sp,sp,48
   12944:	00008067          	ret

00012948 <_lf_done_using>:
 * @param token Pointer to a token.
 * @return NOT_FREED if nothing was freed, VALUE_FREED if the value
 *  was freed, and TOKEN_FREED if both the value and the token were
 *  freed.
 */
token_freed _lf_done_using(lf_token_t* token) {
   12948:	fd010113          	addi	sp,sp,-48
   1294c:	02112623          	sw	ra,44(sp)
   12950:	02812423          	sw	s0,40(sp)
   12954:	03010413          	addi	s0,sp,48
   12958:	fca42e23          	sw	a0,-36(s0)
    token_freed result = NOT_FREED;
   1295c:	fe042623          	sw	zero,-20(s0)
    if (token == NULL) return result;
   12960:	fdc42783          	lw	a5,-36(s0)
   12964:	00079663          	bnez	a5,12970 <_lf_done_using+0x28>
   12968:	fec42783          	lw	a5,-20(s0)
   1296c:	0dc0006f          	j	12a48 <_lf_done_using+0x100>
    if (token->ref_count == 0) {
   12970:	fdc42783          	lw	a5,-36(s0)
   12974:	00c7a783          	lw	a5,12(a5)
   12978:	00079e63          	bnez	a5,12994 <_lf_done_using+0x4c>
        warning_print("Token being freed that has already been freed: %p", token);
   1297c:	fdc42583          	lw	a1,-36(s0)
   12980:	000317b7          	lui	a5,0x31
   12984:	5cc78513          	addi	a0,a5,1484 # 315cc <_exit+0x1e8>
   12988:	8f5ff0ef          	jal	ra,1227c <warning_print>
        return NOT_FREED;
   1298c:	00000793          	li	a5,0
   12990:	0b80006f          	j	12a48 <_lf_done_using+0x100>
    }
    token->ref_count--;
   12994:	fdc42783          	lw	a5,-36(s0)
   12998:	00c7a783          	lw	a5,12(a5)
   1299c:	fff78713          	addi	a4,a5,-1
   129a0:	fdc42783          	lw	a5,-36(s0)
   129a4:	00e7a623          	sw	a4,12(a5)
    DEBUG_PRINT("_lf_done_using: ref_count = %d.", token->ref_count);
    if (token->ref_count == 0) {
   129a8:	fdc42783          	lw	a5,-36(s0)
   129ac:	00c7a783          	lw	a5,12(a5)
   129b0:	08079a63          	bnez	a5,12a44 <_lf_done_using+0xfc>
        if (token->value != NULL) {
   129b4:	fdc42783          	lw	a5,-36(s0)
   129b8:	0007a783          	lw	a5,0(a5)
   129bc:	02078863          	beqz	a5,129ec <_lf_done_using+0xa4>
            // Count frees to issue a warning if this is never freed.
            // Do not free the value field if it is garbage collected.
            _lf_count_payload_allocations--;
   129c0:	3581a783          	lw	a5,856(gp) # 34f48 <_lf_count_payload_allocations>
   129c4:	fff78713          	addi	a4,a5,-1
   129c8:	34e1ac23          	sw	a4,856(gp) # 34f48 <_lf_count_payload_allocations>
            if(OK_TO_FREE != token_only) {
                DEBUG_PRINT("_lf_done_using: Freeing allocated memory for payload (token value): %p", token->value);
                free(token->value);
   129cc:	fdc42783          	lw	a5,-36(s0)
   129d0:	0007a783          	lw	a5,0(a5)
   129d4:	00078513          	mv	a0,a5
   129d8:	235030ef          	jal	ra,1640c <free>
            }
            token->value = NULL;
   129dc:	fdc42783          	lw	a5,-36(s0)
   129e0:	0007a023          	sw	zero,0(a5)
            result = VALUE_FREED;
   129e4:	00100793          	li	a5,1
   129e8:	fef42623          	sw	a5,-20(s0)
        }
        // Tokens that are created at the start of execution and associated with
        // output ports or actions are pointed to by those actions and output
        // ports and should not be freed. They are expected to be reused instead.
        if (token->ok_to_free) {
   129ec:	fdc42783          	lw	a5,-36(s0)
   129f0:	0107a783          	lw	a5,16(a5)
   129f4:	04078863          	beqz	a5,12a44 <_lf_done_using+0xfc>
            // Need to free the lf_token_t struct also.
            if (_lf_token_recycling_bin_size < _LF_TOKEN_RECYCLING_BIN_SIZE_LIMIT) {
   129f8:	3001a703          	lw	a4,768(gp) # 34ef0 <_lf_token_recycling_bin_size>
   129fc:	1ff00793          	li	a5,511
   12a00:	02e7c463          	blt	a5,a4,12a28 <_lf_done_using+0xe0>
                // Recycle instead of freeing.
                token->next_free = _lf_token_recycling_bin;
   12a04:	2fc1a703          	lw	a4,764(gp) # 34eec <_lf_token_recycling_bin>
   12a08:	fdc42783          	lw	a5,-36(s0)
   12a0c:	00e7aa23          	sw	a4,20(a5)
                _lf_token_recycling_bin = token;
   12a10:	fdc42703          	lw	a4,-36(s0)
   12a14:	2ee1ae23          	sw	a4,764(gp) # 34eec <_lf_token_recycling_bin>
                _lf_token_recycling_bin_size++;
   12a18:	3001a783          	lw	a5,768(gp) # 34ef0 <_lf_token_recycling_bin_size>
   12a1c:	00178713          	addi	a4,a5,1
   12a20:	30e1a023          	sw	a4,768(gp) # 34ef0 <_lf_token_recycling_bin_size>
   12a24:	00c0006f          	j	12a30 <_lf_done_using+0xe8>
            } else {
                // Recycling bin is full.
                free(token);
   12a28:	fdc42503          	lw	a0,-36(s0)
   12a2c:	1e1030ef          	jal	ra,1640c <free>
            }
            _lf_count_token_allocations--;
   12a30:	35c1a783          	lw	a5,860(gp) # 34f4c <_lf_count_token_allocations>
   12a34:	fff78713          	addi	a4,a5,-1
   12a38:	34e1ae23          	sw	a4,860(gp) # 34f4c <_lf_count_token_allocations>
            DEBUG_PRINT("_lf_done_using: Freeing allocated memory for token: %p", token);
            result = TOKEN_FREED;
   12a3c:	00200793          	li	a5,2
   12a40:	fef42623          	sw	a5,-20(s0)
        }
    }
    return result;
   12a44:	fec42783          	lw	a5,-20(s0)
}
   12a48:	00078513          	mv	a0,a5
   12a4c:	02c12083          	lw	ra,44(sp)
   12a50:	02812403          	lw	s0,40(sp)
   12a54:	03010113          	addi	sp,sp,48
   12a58:	00008067          	ret

00012a5c <_lf_start_time_step>:
 * Use tables to reset is_present fields to false,
 * set intended_tag fields in federated execution
 * to the current_tag, and decrement reference
 * counts between time steps and at the end of execution.
 */
void _lf_start_time_step() {
   12a5c:	fd010113          	addi	sp,sp,-48
   12a60:	02112623          	sw	ra,44(sp)
   12a64:	02812423          	sw	s0,40(sp)
   12a68:	03010413          	addi	s0,sp,48
    LOG_PRINT("--------- Start time step at tag (%lld, %u).", current_tag.time - start_time, current_tag.microstep);
    for(int i = 0; i < _lf_tokens_with_ref_count_size; i++) {
   12a6c:	fe042623          	sw	zero,-20(s0)
   12a70:	0d40006f          	j	12b44 <_lf_start_time_step+0xe8>
        if (*(_lf_tokens_with_ref_count[i].status) == present) {
   12a74:	2d01a683          	lw	a3,720(gp) # 34ec0 <_lf_tokens_with_ref_count>
   12a78:	fec42703          	lw	a4,-20(s0)
   12a7c:	00070793          	mv	a5,a4
   12a80:	00179793          	slli	a5,a5,0x1
   12a84:	00e787b3          	add	a5,a5,a4
   12a88:	00279793          	slli	a5,a5,0x2
   12a8c:	00f687b3          	add	a5,a3,a5
   12a90:	0047a783          	lw	a5,4(a5)
   12a94:	0007a703          	lw	a4,0(a5)
   12a98:	00100793          	li	a5,1
   12a9c:	08f71e63          	bne	a4,a5,12b38 <_lf_start_time_step+0xdc>
            if (_lf_tokens_with_ref_count[i].reset_is_present
   12aa0:	2d01a683          	lw	a3,720(gp) # 34ec0 <_lf_tokens_with_ref_count>
   12aa4:	fec42703          	lw	a4,-20(s0)
   12aa8:	00070793          	mv	a5,a4
   12aac:	00179793          	slli	a5,a5,0x1
   12ab0:	00e787b3          	add	a5,a5,a4
   12ab4:	00279793          	slli	a5,a5,0x2
   12ab8:	00f687b3          	add	a5,a3,a5
   12abc:	0087c783          	lbu	a5,8(a5)
   12ac0:	04078663          	beqz	a5,12b0c <_lf_start_time_step+0xb0>
            		&& _lf_tokens_with_ref_count[i].status != NULL) {
   12ac4:	2d01a683          	lw	a3,720(gp) # 34ec0 <_lf_tokens_with_ref_count>
   12ac8:	fec42703          	lw	a4,-20(s0)
   12acc:	00070793          	mv	a5,a4
   12ad0:	00179793          	slli	a5,a5,0x1
   12ad4:	00e787b3          	add	a5,a5,a4
   12ad8:	00279793          	slli	a5,a5,0x2
   12adc:	00f687b3          	add	a5,a3,a5
   12ae0:	0047a783          	lw	a5,4(a5)
   12ae4:	02078463          	beqz	a5,12b0c <_lf_start_time_step+0xb0>
                *(_lf_tokens_with_ref_count[i].status) = absent;
   12ae8:	2d01a683          	lw	a3,720(gp) # 34ec0 <_lf_tokens_with_ref_count>
   12aec:	fec42703          	lw	a4,-20(s0)
   12af0:	00070793          	mv	a5,a4
   12af4:	00179793          	slli	a5,a5,0x1
   12af8:	00e787b3          	add	a5,a5,a4
   12afc:	00279793          	slli	a5,a5,0x2
   12b00:	00f687b3          	add	a5,a3,a5
   12b04:	0047a783          	lw	a5,4(a5)
   12b08:	0007a023          	sw	zero,0(a5)
            }
            _lf_done_using(*(_lf_tokens_with_ref_count[i].token));
   12b0c:	2d01a683          	lw	a3,720(gp) # 34ec0 <_lf_tokens_with_ref_count>
   12b10:	fec42703          	lw	a4,-20(s0)
   12b14:	00070793          	mv	a5,a4
   12b18:	00179793          	slli	a5,a5,0x1
   12b1c:	00e787b3          	add	a5,a5,a4
   12b20:	00279793          	slli	a5,a5,0x2
   12b24:	00f687b3          	add	a5,a3,a5
   12b28:	0007a783          	lw	a5,0(a5)
   12b2c:	0007a783          	lw	a5,0(a5)
   12b30:	00078513          	mv	a0,a5
   12b34:	e15ff0ef          	jal	ra,12948 <_lf_done_using>
    for(int i = 0; i < _lf_tokens_with_ref_count_size; i++) {
   12b38:	fec42783          	lw	a5,-20(s0)
   12b3c:	00178793          	addi	a5,a5,1
   12b40:	fef42623          	sw	a5,-20(s0)
   12b44:	2d81a783          	lw	a5,728(gp) # 34ec8 <_lf_tokens_with_ref_count_size>
   12b48:	fec42703          	lw	a4,-20(s0)
   12b4c:	f2f744e3          	blt	a4,a5,12a74 <_lf_start_time_step+0x18>
        }
    }
    // Also handle dynamically created tokens for mutable inputs.
    while (_lf_more_tokens_with_ref_count != NULL) {
   12b50:	0240006f          	j	12b74 <_lf_start_time_step+0x118>
        lf_token_t* next = _lf_more_tokens_with_ref_count->next_free;
   12b54:	2d41a783          	lw	a5,724(gp) # 34ec4 <_lf_more_tokens_with_ref_count>
   12b58:	0147a783          	lw	a5,20(a5)
   12b5c:	fcf42e23          	sw	a5,-36(s0)
        _lf_done_using(_lf_more_tokens_with_ref_count);
   12b60:	2d41a783          	lw	a5,724(gp) # 34ec4 <_lf_more_tokens_with_ref_count>
   12b64:	00078513          	mv	a0,a5
   12b68:	de1ff0ef          	jal	ra,12948 <_lf_done_using>
        _lf_more_tokens_with_ref_count = next;
   12b6c:	fdc42703          	lw	a4,-36(s0)
   12b70:	2ce1aa23          	sw	a4,724(gp) # 34ec4 <_lf_more_tokens_with_ref_count>
    while (_lf_more_tokens_with_ref_count != NULL) {
   12b74:	2d41a783          	lw	a5,724(gp) # 34ec4 <_lf_more_tokens_with_ref_count>
   12b78:	fc079ee3          	bnez	a5,12b54 <_lf_start_time_step+0xf8>
    }
    bool** is_present_fields = _lf_is_present_fields_abbreviated;
   12b7c:	2c01a783          	lw	a5,704(gp) # 34eb0 <_lf_is_present_fields_abbreviated>
   12b80:	fef42423          	sw	a5,-24(s0)
    int size = _lf_is_present_fields_abbreviated_size;
   12b84:	2c41a783          	lw	a5,708(gp) # 34eb4 <_lf_is_present_fields_abbreviated_size>
   12b88:	fef42223          	sw	a5,-28(s0)
    if (_lf_is_present_fields_abbreviated_size > _lf_is_present_fields_size) {
   12b8c:	2c41a703          	lw	a4,708(gp) # 34eb4 <_lf_is_present_fields_abbreviated_size>
   12b90:	2bc1a783          	lw	a5,700(gp) # 34eac <_lf_is_present_fields_size>
   12b94:	00e7da63          	bge	a5,a4,12ba8 <_lf_start_time_step+0x14c>
        size = _lf_is_present_fields_size;
   12b98:	2bc1a783          	lw	a5,700(gp) # 34eac <_lf_is_present_fields_size>
   12b9c:	fef42223          	sw	a5,-28(s0)
        is_present_fields = _lf_is_present_fields;
   12ba0:	2b81a783          	lw	a5,696(gp) # 34ea8 <_lf_is_present_fields>
   12ba4:	fef42423          	sw	a5,-24(s0)
    }
    for(int i = 0; i < size; i++) {
   12ba8:	fe042023          	sw	zero,-32(s0)
   12bac:	0280006f          	j	12bd4 <_lf_start_time_step+0x178>
        *is_present_fields[i] = false;
   12bb0:	fe042783          	lw	a5,-32(s0)
   12bb4:	00279793          	slli	a5,a5,0x2
   12bb8:	fe842703          	lw	a4,-24(s0)
   12bbc:	00f707b3          	add	a5,a4,a5
   12bc0:	0007a783          	lw	a5,0(a5)
   12bc4:	00078023          	sb	zero,0(a5)
    for(int i = 0; i < size; i++) {
   12bc8:	fe042783          	lw	a5,-32(s0)
   12bcc:	00178793          	addi	a5,a5,1
   12bd0:	fef42023          	sw	a5,-32(s0)
   12bd4:	fe042703          	lw	a4,-32(s0)
   12bd8:	fe442783          	lw	a5,-28(s0)
   12bdc:	fcf74ae3          	blt	a4,a5,12bb0 <_lf_start_time_step+0x154>
#ifdef FEDERATED
    // Reset absent fields on network ports because
    // their status is unknown
    reset_status_fields_on_input_port_triggers();
#endif
    _lf_is_present_fields_abbreviated_size = 0;
   12be0:	2c01a223          	sw	zero,708(gp) # 34eb4 <_lf_is_present_fields_abbreviated_size>
}
   12be4:	00000013          	nop
   12be8:	02c12083          	lw	ra,44(sp)
   12bec:	02812403          	lw	s0,40(sp)
   12bf0:	03010113          	addi	sp,sp,48
   12bf4:	00008067          	ret

00012bf8 <_lf_create_token>:
 * to initialize actions with tokens.
 * @param element_size The size of an element carried in the payload or
 *  0 if there is no payload.
 * @return A new or recycled lf_token_t struct.
 */
lf_token_t* _lf_create_token(size_t element_size) {
   12bf8:	fd010113          	addi	sp,sp,-48
   12bfc:	02112623          	sw	ra,44(sp)
   12c00:	02812423          	sw	s0,40(sp)
   12c04:	03010413          	addi	s0,sp,48
   12c08:	fca42e23          	sw	a0,-36(s0)
    lf_token_t* token;
    // Check the recycling bin.
    if (_lf_token_recycling_bin != NULL) {
   12c0c:	2fc1a783          	lw	a5,764(gp) # 34eec <_lf_token_recycling_bin>
   12c10:	02078463          	beqz	a5,12c38 <_lf_create_token+0x40>
        token = _lf_token_recycling_bin;
   12c14:	2fc1a783          	lw	a5,764(gp) # 34eec <_lf_token_recycling_bin>
   12c18:	fef42623          	sw	a5,-20(s0)
        _lf_token_recycling_bin = token->next_free;
   12c1c:	fec42783          	lw	a5,-20(s0)
   12c20:	0147a703          	lw	a4,20(a5)
   12c24:	2ee1ae23          	sw	a4,764(gp) # 34eec <_lf_token_recycling_bin>
        _lf_token_recycling_bin_size--;
   12c28:	3001a783          	lw	a5,768(gp) # 34ef0 <_lf_token_recycling_bin_size>
   12c2c:	fff78713          	addi	a4,a5,-1
   12c30:	30e1a023          	sw	a4,768(gp) # 34ef0 <_lf_token_recycling_bin_size>
   12c34:	0140006f          	j	12c48 <_lf_create_token+0x50>
        DEBUG_PRINT("_lf_create_token: Retrieved token from the recycling bin: %p", token);
    } else {
        token = (lf_token_t*)malloc(sizeof(lf_token_t));
   12c38:	01800513          	li	a0,24
   12c3c:	79c030ef          	jal	ra,163d8 <malloc>
   12c40:	00050793          	mv	a5,a0
   12c44:	fef42623          	sw	a5,-20(s0)
        DEBUG_PRINT("_lf_create_token: Allocated memory for token: %p", token);
    }
    token->value = NULL;
   12c48:	fec42783          	lw	a5,-20(s0)
   12c4c:	0007a023          	sw	zero,0(a5)
    token->length = 0;
   12c50:	fec42783          	lw	a5,-20(s0)
   12c54:	0007a423          	sw	zero,8(a5)
    token->element_size = element_size;
   12c58:	fec42783          	lw	a5,-20(s0)
   12c5c:	fdc42703          	lw	a4,-36(s0)
   12c60:	00e7a223          	sw	a4,4(a5)
    token->ref_count = 0;
   12c64:	fec42783          	lw	a5,-20(s0)
   12c68:	0007a623          	sw	zero,12(a5)
    token->ok_to_free = no;
   12c6c:	fec42783          	lw	a5,-20(s0)
   12c70:	0007a823          	sw	zero,16(a5)
    token->next_free = NULL;
   12c74:	fec42783          	lw	a5,-20(s0)
   12c78:	0007aa23          	sw	zero,20(a5)
    return token;
   12c7c:	fec42783          	lw	a5,-20(s0)
}
   12c80:	00078513          	mv	a0,a5
   12c84:	02c12083          	lw	ra,44(sp)
   12c88:	02812403          	lw	s0,40(sp)
   12c8c:	03010113          	addi	sp,sp,48
   12c90:	00008067          	ret

00012c94 <create_token>:
 * @return A new or recycled lf_token_t struct.
 * 
 * @note For multithreaded applications, the caller must hold
 *  the mutex lock because it accesses global variables.
 */
lf_token_t* create_token(size_t element_size) {
   12c94:	fd010113          	addi	sp,sp,-48
   12c98:	02112623          	sw	ra,44(sp)
   12c9c:	02812423          	sw	s0,40(sp)
   12ca0:	03010413          	addi	s0,sp,48
   12ca4:	fca42e23          	sw	a0,-36(s0)
    DEBUG_PRINT("create_token: element_size: %zu", element_size);
    _lf_count_token_allocations++;
   12ca8:	35c1a783          	lw	a5,860(gp) # 34f4c <_lf_count_token_allocations>
   12cac:	00178713          	addi	a4,a5,1
   12cb0:	34e1ae23          	sw	a4,860(gp) # 34f4c <_lf_count_token_allocations>
    lf_token_t* result = _lf_create_token(element_size);
   12cb4:	fdc42503          	lw	a0,-36(s0)
   12cb8:	f41ff0ef          	jal	ra,12bf8 <_lf_create_token>
   12cbc:	fea42623          	sw	a0,-20(s0)
    result->ok_to_free = OK_TO_FREE;
   12cc0:	fec42783          	lw	a5,-20(s0)
   12cc4:	00100713          	li	a4,1
   12cc8:	00e7a823          	sw	a4,16(a5)
    return result;
   12ccc:	fec42783          	lw	a5,-20(s0)
}
   12cd0:	00078513          	mv	a0,a5
   12cd4:	02c12083          	lw	ra,44(sp)
   12cd8:	02812403          	lw	s0,40(sp)
   12cdc:	03010113          	addi	sp,sp,48
   12ce0:	00008067          	ret

00012ce4 <_lf_initialize_token_with_value>:
 * @param value The value of the array.
 * @param length The length of the array, or 1 if it is not an array.
 * @return Either the specified token or a new one, in each case with a value
 *  field pointing to newly allocated memory.
 */
lf_token_t* _lf_initialize_token_with_value(lf_token_t* token, void* value, size_t length) {
   12ce4:	fd010113          	addi	sp,sp,-48
   12ce8:	02112623          	sw	ra,44(sp)
   12cec:	02812423          	sw	s0,40(sp)
   12cf0:	03010413          	addi	s0,sp,48
   12cf4:	fca42e23          	sw	a0,-36(s0)
   12cf8:	fcb42c23          	sw	a1,-40(s0)
   12cfc:	fcc42a23          	sw	a2,-44(s0)
    // assert(token != NULL);

    // If necessary, allocate memory for a new lf_token_t struct.
    // This assumes that the lf_token_t* in the self struct has been initialized to NULL.
    lf_token_t* result = token;
   12d00:	fdc42783          	lw	a5,-36(s0)
   12d04:	fef42623          	sw	a5,-20(s0)
    DEBUG_PRINT("Initializing a token %p with ref_count %d.", token, token->ref_count);
    if (token == NULL || token->ref_count > 0) {
   12d08:	fdc42783          	lw	a5,-36(s0)
   12d0c:	00078863          	beqz	a5,12d1c <_lf_initialize_token_with_value+0x38>
   12d10:	fdc42783          	lw	a5,-36(s0)
   12d14:	00c7a783          	lw	a5,12(a5)
   12d18:	00f05c63          	blez	a5,12d30 <_lf_initialize_token_with_value+0x4c>
        // The specified token is not available.
        result = create_token(token->element_size);
   12d1c:	fdc42783          	lw	a5,-36(s0)
   12d20:	0047a783          	lw	a5,4(a5)
   12d24:	00078513          	mv	a0,a5
   12d28:	f6dff0ef          	jal	ra,12c94 <create_token>
   12d2c:	fea42623          	sw	a0,-20(s0)
    }
    result->value = value;
   12d30:	fec42783          	lw	a5,-20(s0)
   12d34:	fd842703          	lw	a4,-40(s0)
   12d38:	00e7a023          	sw	a4,0(a5)
    result->length = length;
   12d3c:	fec42783          	lw	a5,-20(s0)
   12d40:	fd442703          	lw	a4,-44(s0)
   12d44:	00e7a423          	sw	a4,8(a5)
    return result;
   12d48:	fec42783          	lw	a5,-20(s0)
}
   12d4c:	00078513          	mv	a0,a5
   12d50:	02c12083          	lw	ra,44(sp)
   12d54:	02812403          	lw	s0,40(sp)
   12d58:	03010113          	addi	sp,sp,48
   12d5c:	00008067          	ret

00012d60 <_lf_initialize_token>:
 * @param token The token to populate, if it is available (must not be NULL).
 * @param length The length of the array, or 1 if it is not an array.
 * @return Either the specified token or a new one, in each case with a value
 *  field pointing to newly allocated memory.
 */
lf_token_t* _lf_initialize_token(lf_token_t* token, size_t length) {
   12d60:	fd010113          	addi	sp,sp,-48
   12d64:	02112623          	sw	ra,44(sp)
   12d68:	02812423          	sw	s0,40(sp)
   12d6c:	03010413          	addi	s0,sp,48
   12d70:	fca42e23          	sw	a0,-36(s0)
   12d74:	fcb42c23          	sw	a1,-40(s0)
    // assert(token != NULL);

    // Allocate memory for storing the array.
    void* value = malloc(token->element_size * length);
   12d78:	fdc42783          	lw	a5,-36(s0)
   12d7c:	0047a783          	lw	a5,4(a5)
   12d80:	fd842583          	lw	a1,-40(s0)
   12d84:	00078513          	mv	a0,a5
   12d88:	22c050ef          	jal	ra,17fb4 <__mulsi3>
   12d8c:	00050793          	mv	a5,a0
   12d90:	00078513          	mv	a0,a5
   12d94:	644030ef          	jal	ra,163d8 <malloc>
   12d98:	00050793          	mv	a5,a0
   12d9c:	fef42623          	sw	a5,-20(s0)
    // Count allocations to issue a warning if this is never freed.
    _lf_count_payload_allocations++;
   12da0:	3581a783          	lw	a5,856(gp) # 34f48 <_lf_count_payload_allocations>
   12da4:	00178713          	addi	a4,a5,1
   12da8:	34e1ac23          	sw	a4,856(gp) # 34f48 <_lf_count_payload_allocations>
    return _lf_initialize_token_with_value(token, value, length);
   12dac:	fd842603          	lw	a2,-40(s0)
   12db0:	fec42583          	lw	a1,-20(s0)
   12db4:	fdc42503          	lw	a0,-36(s0)
   12db8:	f2dff0ef          	jal	ra,12ce4 <_lf_initialize_token_with_value>
   12dbc:	00050793          	mv	a5,a0
}
   12dc0:	00078513          	mv	a0,a5
   12dc4:	02c12083          	lw	ra,44(sp)
   12dc8:	02812403          	lw	s0,40(sp)
   12dcc:	03010113          	addi	sp,sp,48
   12dd0:	00008067          	ret

00012dd4 <_lf_is_tag_after_stop_tag>:
/**
 * A helper function that returns true if the provided tag is after stop tag.
 * 
 * @param tag The tag to check against stop tag
 */
bool _lf_is_tag_after_stop_tag(tag_t tag) {
   12dd4:	fd010113          	addi	sp,sp,-48
   12dd8:	02112623          	sw	ra,44(sp)
   12ddc:	02812423          	sw	s0,40(sp)
   12de0:	03010413          	addi	s0,sp,48
   12de4:	00050093          	mv	ra,a0
    return (compare_tags(tag, stop_tag) > 0);
   12de8:	0000a603          	lw	a2,0(ra)
   12dec:	0040a683          	lw	a3,4(ra)
   12df0:	0080a703          	lw	a4,8(ra)
   12df4:	00c0a783          	lw	a5,12(ra)
   12df8:	fec42023          	sw	a2,-32(s0)
   12dfc:	fed42223          	sw	a3,-28(s0)
   12e00:	fee42423          	sw	a4,-24(s0)
   12e04:	fef42623          	sw	a5,-20(s0)
   12e08:	000347b7          	lui	a5,0x34
   12e0c:	3f078793          	addi	a5,a5,1008 # 343f0 <stop_tag>
   12e10:	0007a603          	lw	a2,0(a5)
   12e14:	0047a683          	lw	a3,4(a5)
   12e18:	0087a703          	lw	a4,8(a5)
   12e1c:	00c7a783          	lw	a5,12(a5)
   12e20:	fcc42823          	sw	a2,-48(s0)
   12e24:	fcd42a23          	sw	a3,-44(s0)
   12e28:	fce42c23          	sw	a4,-40(s0)
   12e2c:	fcf42e23          	sw	a5,-36(s0)
   12e30:	fd040713          	addi	a4,s0,-48
   12e34:	fe040793          	addi	a5,s0,-32
   12e38:	00070593          	mv	a1,a4
   12e3c:	00078513          	mv	a0,a5
   12e40:	a94fd0ef          	jal	ra,100d4 <compare_tags>
   12e44:	00050793          	mv	a5,a0
   12e48:	00f027b3          	sgtz	a5,a5
   12e4c:	0ff7f793          	andi	a5,a5,255
}
   12e50:	00078513          	mv	a0,a5
   12e54:	02c12083          	lw	ra,44(sp)
   12e58:	02812403          	lw	s0,40(sp)
   12e5c:	03010113          	addi	sp,sp,48
   12e60:	00008067          	ret

00012e64 <_lf_pop_events>:
/**
 * Pop all events from event_q with timestamp equal to current_tag.time, extract all
 * the reactions triggered by these events, and stick them into the reaction
 * queue.
 */
void _lf_pop_events() {
   12e64:	fe010113          	addi	sp,sp,-32
   12e68:	00112e23          	sw	ra,28(sp)
   12e6c:	00812c23          	sw	s0,24(sp)
   12e70:	00912a23          	sw	s1,20(sp)
   12e74:	02010413          	addi	s0,sp,32
    event_t* event = (event_t*)pqueue_peek(event_q);
   12e78:	2ec1a783          	lw	a5,748(gp) # 34edc <event_q>
   12e7c:	00078513          	mv	a0,a5
   12e80:	c65fe0ef          	jal	ra,11ae4 <pqueue_peek>
   12e84:	fea42623          	sw	a0,-20(s0)
    while(event != NULL && event->time == current_tag.time) {
   12e88:	2200006f          	j	130a8 <_lf_pop_events+0x244>
        event = (event_t*)pqueue_pop(event_q);
   12e8c:	2ec1a783          	lw	a5,748(gp) # 34edc <event_q>
   12e90:	00078513          	mv	a0,a5
   12e94:	ba9fe0ef          	jal	ra,11a3c <pqueue_pop>
   12e98:	fea42623          	sw	a0,-20(s0)
        
        if (event->is_dummy) {
   12e9c:	fec42783          	lw	a5,-20(s0)
   12ea0:	0147c783          	lbu	a5,20(a5)
   12ea4:	04078263          	beqz	a5,12ee8 <_lf_pop_events+0x84>
        	DEBUG_PRINT("Popped dummy event from the event queue.");
        	if (event->next != NULL) {
   12ea8:	fec42783          	lw	a5,-20(s0)
   12eac:	0187a783          	lw	a5,24(a5)
   12eb0:	00078e63          	beqz	a5,12ecc <_lf_pop_events+0x68>
            	DEBUG_PRINT("Putting event from the event queue for the next microstep.");
        		pqueue_insert(next_q, event->next);
   12eb4:	2f81a703          	lw	a4,760(gp) # 34ee8 <next_q>
   12eb8:	fec42783          	lw	a5,-20(s0)
   12ebc:	0187a783          	lw	a5,24(a5)
   12ec0:	00078593          	mv	a1,a5
   12ec4:	00070513          	mv	a0,a4
   12ec8:	955fe0ef          	jal	ra,1181c <pqueue_insert>
        	}
            _lf_recycle_event(event);
   12ecc:	fec42503          	lw	a0,-20(s0)
   12ed0:	3fc000ef          	jal	ra,132cc <_lf_recycle_event>
            // Peek at the next event in the event queue.
            event = (event_t*)pqueue_peek(event_q);
   12ed4:	2ec1a783          	lw	a5,748(gp) # 34edc <event_q>
   12ed8:	00078513          	mv	a0,a5
   12edc:	c09fe0ef          	jal	ra,11ae4 <pqueue_peek>
   12ee0:	fea42623          	sw	a0,-20(s0)
            continue;
   12ee4:	1c40006f          	j	130a8 <_lf_pop_events+0x244>
        }

        lf_token_t *token = event->token;
   12ee8:	fec42783          	lw	a5,-20(s0)
   12eec:	0107a783          	lw	a5,16(a5)
   12ef0:	fef42223          	sw	a5,-28(s0)

        // Put the corresponding reactions onto the reaction queue.
        for (int i = 0; i < event->trigger->number_of_reactions; i++) {
   12ef4:	fe042423          	sw	zero,-24(s0)
   12ef8:	0580006f          	j	12f50 <_lf_pop_events+0xec>
            reaction_t *reaction = event->trigger->reactions[i];
   12efc:	fec42783          	lw	a5,-20(s0)
   12f00:	0087a783          	lw	a5,8(a5)
   12f04:	0007a703          	lw	a4,0(a5)
   12f08:	fe842783          	lw	a5,-24(s0)
   12f0c:	00279793          	slli	a5,a5,0x2
   12f10:	00f707b3          	add	a5,a4,a5
   12f14:	0007a783          	lw	a5,0(a5)
   12f18:	fef42023          	sw	a5,-32(s0)
            // Do not enqueue this reaction twice.
            if (reaction->status == inactive) {
   12f1c:	fe042783          	lw	a5,-32(s0)
   12f20:	0387a783          	lw	a5,56(a5)
   12f24:	02079063          	bnez	a5,12f44 <_lf_pop_events+0xe0>
                                    current_tag.time - start_time, current_tag.microstep);
                    }
                }
#endif
                DEBUG_PRINT("Enqueing reaction %s.", reaction->name);
                reaction->status = queued;
   12f28:	fe042783          	lw	a5,-32(s0)
   12f2c:	00100713          	li	a4,1
   12f30:	02e7ac23          	sw	a4,56(a5)
                pqueue_insert(reaction_q, reaction);
   12f34:	2f01a783          	lw	a5,752(gp) # 34ee0 <reaction_q>
   12f38:	fe042583          	lw	a1,-32(s0)
   12f3c:	00078513          	mv	a0,a5
   12f40:	8ddfe0ef          	jal	ra,1181c <pqueue_insert>
        for (int i = 0; i < event->trigger->number_of_reactions; i++) {
   12f44:	fe842783          	lw	a5,-24(s0)
   12f48:	00178793          	addi	a5,a5,1
   12f4c:	fef42423          	sw	a5,-24(s0)
   12f50:	fec42783          	lw	a5,-20(s0)
   12f54:	0087a783          	lw	a5,8(a5)
   12f58:	0047a783          	lw	a5,4(a5)
   12f5c:	fe842703          	lw	a4,-24(s0)
   12f60:	f8f74ee3          	blt	a4,a5,12efc <_lf_pop_events+0x98>
                DEBUG_PRINT("Reaction is already on the reaction_q: %s", reaction->name);
            }
        }

        // Mark the trigger present.
        event->trigger->status = present;
   12f64:	fec42783          	lw	a5,-20(s0)
   12f68:	0087a783          	lw	a5,8(a5)
   12f6c:	00100713          	li	a4,1
   12f70:	02e7aa23          	sw	a4,52(a5)

        // If the trigger is a periodic timer, create a new event for its next execution.
        if (event->trigger->is_timer && event->trigger->period > 0LL) {
   12f74:	fec42783          	lw	a5,-20(s0)
   12f78:	0087a783          	lw	a5,8(a5)
   12f7c:	0087c783          	lbu	a5,8(a5)
   12f80:	04078a63          	beqz	a5,12fd4 <_lf_pop_events+0x170>
   12f84:	fec42783          	lw	a5,-20(s0)
   12f88:	0087a783          	lw	a5,8(a5)
   12f8c:	0187a703          	lw	a4,24(a5)
   12f90:	01c7a783          	lw	a5,28(a5)
   12f94:	00078693          	mv	a3,a5
   12f98:	00d04a63          	bgtz	a3,12fac <_lf_pop_events+0x148>
   12f9c:	00078693          	mv	a3,a5
   12fa0:	02069a63          	bnez	a3,12fd4 <_lf_pop_events+0x170>
   12fa4:	00070793          	mv	a5,a4
   12fa8:	02078663          	beqz	a5,12fd4 <_lf_pop_events+0x170>
            // Reschedule the trigger.
            _lf_schedule(event->trigger, event->trigger->period, NULL);
   12fac:	fec42783          	lw	a5,-20(s0)
   12fb0:	0087a503          	lw	a0,8(a5)
   12fb4:	fec42783          	lw	a5,-20(s0)
   12fb8:	0087a783          	lw	a5,8(a5)
   12fbc:	0187a703          	lw	a4,24(a5)
   12fc0:	01c7a783          	lw	a5,28(a5)
   12fc4:	00000693          	li	a3,0
   12fc8:	00070593          	mv	a1,a4
   12fcc:	00078613          	mv	a2,a5
   12fd0:	1e1000ef          	jal	ra,139b0 <_lf_schedule>
        }

        // Copy the token pointer into the trigger struct so that the
        // reactions can access it. This overwrites the previous template token,
        // for which we decrement the reference count.
        if (event->trigger->token != event->token
   12fd4:	fec42783          	lw	a5,-20(s0)
   12fd8:	0087a783          	lw	a5,8(a5)
   12fdc:	0207a703          	lw	a4,32(a5)
   12fe0:	fec42783          	lw	a5,-20(s0)
   12fe4:	0107a783          	lw	a5,16(a5)
   12fe8:	04f70a63          	beq	a4,a5,1303c <_lf_pop_events+0x1d8>
                && event->trigger->token != NULL) {
   12fec:	fec42783          	lw	a5,-20(s0)
   12ff0:	0087a783          	lw	a5,8(a5)
   12ff4:	0207a783          	lw	a5,32(a5)
   12ff8:	04078263          	beqz	a5,1303c <_lf_pop_events+0x1d8>
            // Mark the previous one ok_to_free so we don't get a memory leak.
            event->trigger->token->ok_to_free = OK_TO_FREE;
   12ffc:	fec42783          	lw	a5,-20(s0)
   13000:	0087a783          	lw	a5,8(a5)
   13004:	0207a783          	lw	a5,32(a5)
   13008:	00100713          	li	a4,1
   1300c:	00e7a823          	sw	a4,16(a5)
            // Free the token if its reference count is zero. Since _lf_done_using
            // decrements the reference count, first increment it here.
            event->trigger->token->ref_count++;
   13010:	fec42783          	lw	a5,-20(s0)
   13014:	0087a783          	lw	a5,8(a5)
   13018:	0207a783          	lw	a5,32(a5)
   1301c:	00c7a703          	lw	a4,12(a5)
   13020:	00170713          	addi	a4,a4,1
   13024:	00e7a623          	sw	a4,12(a5)
            _lf_done_using(event->trigger->token);
   13028:	fec42783          	lw	a5,-20(s0)
   1302c:	0087a783          	lw	a5,8(a5)
   13030:	0207a783          	lw	a5,32(a5)
   13034:	00078513          	mv	a0,a5
   13038:	911ff0ef          	jal	ra,12948 <_lf_done_using>
        }
        event->trigger->token = token;
   1303c:	fec42783          	lw	a5,-20(s0)
   13040:	0087a783          	lw	a5,8(a5)
   13044:	fe442703          	lw	a4,-28(s0)
   13048:	02e7a023          	sw	a4,32(a5)
        // Prevent this token from being freed. It is the new template.
        // This might be null if there are no reactions to the action.
        if (token != NULL) {
   1304c:	fe442783          	lw	a5,-28(s0)
   13050:	00078663          	beqz	a5,1305c <_lf_pop_events+0x1f8>
            token->ok_to_free = no;
   13054:	fe442783          	lw	a5,-28(s0)
   13058:	0007a823          	sw	zero,16(a5)
        }

        // Mark the trigger present.
        event->trigger->status = present;
   1305c:	fec42783          	lw	a5,-20(s0)
   13060:	0087a783          	lw	a5,8(a5)
   13064:	00100713          	li	a4,1
   13068:	02e7aa23          	sw	a4,52(a5)
        
        // If this event points to a next event, insert it into the next queue.
        if (event->next != NULL) {
   1306c:	fec42783          	lw	a5,-20(s0)
   13070:	0187a783          	lw	a5,24(a5)
   13074:	00078e63          	beqz	a5,13090 <_lf_pop_events+0x22c>
            // Insert the next event into the next queue.
            pqueue_insert(next_q, event->next);
   13078:	2f81a703          	lw	a4,760(gp) # 34ee8 <next_q>
   1307c:	fec42783          	lw	a5,-20(s0)
   13080:	0187a783          	lw	a5,24(a5)
   13084:	00078593          	mv	a1,a5
   13088:	00070513          	mv	a0,a4
   1308c:	f90fe0ef          	jal	ra,1181c <pqueue_insert>
        }

        _lf_recycle_event(event);
   13090:	fec42503          	lw	a0,-20(s0)
   13094:	238000ef          	jal	ra,132cc <_lf_recycle_event>
        
        // Peek at the next event in the event queue.
        event = (event_t*)pqueue_peek(event_q);
   13098:	2ec1a783          	lw	a5,748(gp) # 34edc <event_q>
   1309c:	00078513          	mv	a0,a5
   130a0:	a45fe0ef          	jal	ra,11ae4 <pqueue_peek>
   130a4:	fea42623          	sw	a0,-20(s0)
    while(event != NULL && event->time == current_tag.time) {
   130a8:	fec42783          	lw	a5,-20(s0)
   130ac:	04078863          	beqz	a5,130fc <_lf_pop_events+0x298>
   130b0:	fec42783          	lw	a5,-20(s0)
   130b4:	0007a603          	lw	a2,0(a5)
   130b8:	0047a683          	lw	a3,4(a5)
   130bc:	34818793          	addi	a5,gp,840 # 34f38 <current_tag>
   130c0:	0007a703          	lw	a4,0(a5)
   130c4:	0047a783          	lw	a5,4(a5)
   130c8:	00060513          	mv	a0,a2
   130cc:	00070593          	mv	a1,a4
   130d0:	02b51663          	bne	a0,a1,130fc <_lf_pop_events+0x298>
   130d4:	daf68ce3          	beq	a3,a5,12e8c <_lf_pop_events+0x28>

    DEBUG_PRINT("There are %d events deferred to the next microstep.", pqueue_size(next_q));

    // After populating the reaction queue, see if there are things on the
    // next queue to put back into the event queue.
    while(pqueue_peek(next_q) != NULL) {
   130d8:	0240006f          	j	130fc <_lf_pop_events+0x298>
        pqueue_insert(event_q, pqueue_pop(next_q));
   130dc:	2ec1a483          	lw	s1,748(gp) # 34edc <event_q>
   130e0:	2f81a783          	lw	a5,760(gp) # 34ee8 <next_q>
   130e4:	00078513          	mv	a0,a5
   130e8:	955fe0ef          	jal	ra,11a3c <pqueue_pop>
   130ec:	00050793          	mv	a5,a0
   130f0:	00078593          	mv	a1,a5
   130f4:	00048513          	mv	a0,s1
   130f8:	f24fe0ef          	jal	ra,1181c <pqueue_insert>
    while(pqueue_peek(next_q) != NULL) {
   130fc:	2f81a783          	lw	a5,760(gp) # 34ee8 <next_q>
   13100:	00078513          	mv	a0,a5
   13104:	9e1fe0ef          	jal	ra,11ae4 <pqueue_peek>
   13108:	00050793          	mv	a5,a0
   1310c:	fc0798e3          	bnez	a5,130dc <_lf_pop_events+0x278>
    }
}
   13110:	00000013          	nop
   13114:	00000013          	nop
   13118:	01c12083          	lw	ra,28(sp)
   1311c:	01812403          	lw	s0,24(sp)
   13120:	01412483          	lw	s1,20(sp)
   13124:	02010113          	addi	sp,sp,32
   13128:	00008067          	ret

0001312c <_lf_initialize_timer>:
 * Initialize the given timer.
 * If this timer has a zero offset, enqueue the reactions it triggers.
 * If this timer is to trigger reactions at a _future_ tag as well, 
 * schedule it accordingly. 
 */
void _lf_initialize_timer(trigger_t* timer) {
   1312c:	fd010113          	addi	sp,sp,-48
   13130:	02112623          	sw	ra,44(sp)
   13134:	02812423          	sw	s0,40(sp)
   13138:	03010413          	addi	s0,sp,48
   1313c:	fca42e23          	sw	a0,-36(s0)
    interval_t delay = 0;
   13140:	00000793          	li	a5,0
   13144:	00000813          	li	a6,0
   13148:	fef42423          	sw	a5,-24(s0)
   1314c:	ff042623          	sw	a6,-20(s0)
    if (timer->offset == 0) {
   13150:	fdc42783          	lw	a5,-36(s0)
   13154:	0107a603          	lw	a2,16(a5)
   13158:	0147a683          	lw	a3,20(a5)
   1315c:	00060793          	mv	a5,a2
   13160:	00d7e7b3          	or	a5,a5,a3
   13164:	06079c63          	bnez	a5,131dc <_lf_initialize_timer+0xb0>
        for (int i = 0; i < timer->number_of_reactions; i++) {
   13168:	fe042223          	sw	zero,-28(s0)
   1316c:	0300006f          	j	1319c <_lf_initialize_timer+0x70>
            _lf_enqueue_reaction(timer->reactions[i]);
   13170:	fdc42783          	lw	a5,-36(s0)
   13174:	0007a703          	lw	a4,0(a5)
   13178:	fe442783          	lw	a5,-28(s0)
   1317c:	00279793          	slli	a5,a5,0x2
   13180:	00f707b3          	add	a5,a4,a5
   13184:	0007a783          	lw	a5,0(a5)
   13188:	00078513          	mv	a0,a5
   1318c:	78c020ef          	jal	ra,15918 <_lf_enqueue_reaction>
        for (int i = 0; i < timer->number_of_reactions; i++) {
   13190:	fe442783          	lw	a5,-28(s0)
   13194:	00178793          	addi	a5,a5,1
   13198:	fef42223          	sw	a5,-28(s0)
   1319c:	fdc42783          	lw	a5,-36(s0)
   131a0:	0047a783          	lw	a5,4(a5)
   131a4:	fe442703          	lw	a4,-28(s0)
   131a8:	fcf744e3          	blt	a4,a5,13170 <_lf_initialize_timer+0x44>
            tracepoint_schedule(timer, 0LL); // Trace even though schedule is not called.
        }
        if (timer->period == 0) {
   131ac:	fdc42783          	lw	a5,-36(s0)
   131b0:	0187a603          	lw	a2,24(a5)
   131b4:	01c7a683          	lw	a3,28(a5)
   131b8:	00060793          	mv	a5,a2
   131bc:	00d7e7b3          	or	a5,a5,a3
   131c0:	08078863          	beqz	a5,13250 <_lf_initialize_timer+0x124>
            return;
        } else {
            // Schedule at t + period.
            delay = timer->period;
   131c4:	fdc42783          	lw	a5,-36(s0)
   131c8:	0187a703          	lw	a4,24(a5)
   131cc:	01c7a783          	lw	a5,28(a5)
   131d0:	fee42423          	sw	a4,-24(s0)
   131d4:	fef42623          	sw	a5,-20(s0)
   131d8:	0180006f          	j	131f0 <_lf_initialize_timer+0xc4>
        }
    } else {
        // Schedule at t + offset.
        delay = timer->offset;
   131dc:	fdc42783          	lw	a5,-36(s0)
   131e0:	0107a703          	lw	a4,16(a5)
   131e4:	0147a783          	lw	a5,20(a5)
   131e8:	fee42423          	sw	a4,-24(s0)
   131ec:	fef42623          	sw	a5,-20(s0)
    }

    // Get an event_t struct to put on the event queue.
    // Recycle event_t structs, if possible.    
    event_t* e = _lf_get_new_event();
   131f0:	074000ef          	jal	ra,13264 <_lf_get_new_event>
   131f4:	fea42023          	sw	a0,-32(s0)
    e->trigger = timer;
   131f8:	fe042783          	lw	a5,-32(s0)
   131fc:	fdc42703          	lw	a4,-36(s0)
   13200:	00e7a423          	sw	a4,8(a5)
    e->time = get_logical_time() + delay;
   13204:	9dcfd0ef          	jal	ra,103e0 <get_logical_time>
   13208:	00050613          	mv	a2,a0
   1320c:	00058693          	mv	a3,a1
   13210:	fe842503          	lw	a0,-24(s0)
   13214:	fec42583          	lw	a1,-20(s0)
   13218:	00a60733          	add	a4,a2,a0
   1321c:	00070813          	mv	a6,a4
   13220:	00c83833          	sltu	a6,a6,a2
   13224:	00b687b3          	add	a5,a3,a1
   13228:	00f806b3          	add	a3,a6,a5
   1322c:	00068793          	mv	a5,a3
   13230:	fe042683          	lw	a3,-32(s0)
   13234:	00e6a023          	sw	a4,0(a3)
   13238:	00f6a223          	sw	a5,4(a3)
    // NOTE: No lock is being held. Assuming this only happens at startup.
    pqueue_insert(event_q, e);
   1323c:	2ec1a783          	lw	a5,748(gp) # 34edc <event_q>
   13240:	fe042583          	lw	a1,-32(s0)
   13244:	00078513          	mv	a0,a5
   13248:	dd4fe0ef          	jal	ra,1181c <pqueue_insert>
   1324c:	0080006f          	j	13254 <_lf_initialize_timer+0x128>
            return;
   13250:	00000013          	nop
    tracepoint_schedule(timer, delay); // Trace even though schedule is not called.
}
   13254:	02c12083          	lw	ra,44(sp)
   13258:	02812403          	lw	s0,40(sp)
   1325c:	03010113          	addi	sp,sp,48
   13260:	00008067          	ret

00013264 <_lf_get_new_event>:

/**
 * Get a new event. If there is a recycled event available, use that.
 * If not, allocate a new one. In either case, all fields will be zero'ed out.
 */
event_t* _lf_get_new_event() {
   13264:	fe010113          	addi	sp,sp,-32
   13268:	00112e23          	sw	ra,28(sp)
   1326c:	00812c23          	sw	s0,24(sp)
   13270:	02010413          	addi	s0,sp,32
    // Recycle event_t structs, if possible.    
    event_t* e = (event_t*)pqueue_pop(recycle_q);
   13274:	2f41a783          	lw	a5,756(gp) # 34ee4 <recycle_q>
   13278:	00078513          	mv	a0,a5
   1327c:	fc0fe0ef          	jal	ra,11a3c <pqueue_pop>
   13280:	fea42623          	sw	a0,-20(s0)
    if (e == NULL) {
   13284:	fec42783          	lw	a5,-20(s0)
   13288:	02079663          	bnez	a5,132b4 <_lf_get_new_event+0x50>
        e = (event_t*)calloc(1, sizeof(struct event_t));
   1328c:	02000593          	li	a1,32
   13290:	00100513          	li	a0,1
   13294:	73d040ef          	jal	ra,181d0 <calloc>
   13298:	00050793          	mv	a5,a0
   1329c:	fef42623          	sw	a5,-20(s0)
        if (e == NULL) error_print_and_exit("Out of memory!");
   132a0:	fec42783          	lw	a5,-20(s0)
   132a4:	00079863          	bnez	a5,132b4 <_lf_get_new_event+0x50>
   132a8:	000317b7          	lui	a5,0x31
   132ac:	5bc78513          	addi	a0,a5,1468 # 315bc <_exit+0x1d8>
   132b0:	844ff0ef          	jal	ra,122f4 <error_print_and_exit>
#ifdef FEDERATED_DECENTRALIZED
        e->intended_tag = (tag_t) { .time = NEVER, .microstep = 0u};
#endif
    }
    return e;
   132b4:	fec42783          	lw	a5,-20(s0)
}
   132b8:	00078513          	mv	a0,a5
   132bc:	01c12083          	lw	ra,28(sp)
   132c0:	01812403          	lw	s0,24(sp)
   132c4:	02010113          	addi	sp,sp,32
   132c8:	00008067          	ret

000132cc <_lf_recycle_event>:

/**
 * Recycle the given event.
 * Zero it out and pushed it onto the recycle queue.
 */
void _lf_recycle_event(event_t* e) {
   132cc:	fe010113          	addi	sp,sp,-32
   132d0:	00112e23          	sw	ra,28(sp)
   132d4:	00812c23          	sw	s0,24(sp)
   132d8:	02010413          	addi	s0,sp,32
   132dc:	fea42623          	sw	a0,-20(s0)
    e->time = 0LL;
   132e0:	fec42783          	lw	a5,-20(s0)
   132e4:	00000693          	li	a3,0
   132e8:	00000713          	li	a4,0
   132ec:	00d7a023          	sw	a3,0(a5)
   132f0:	00e7a223          	sw	a4,4(a5)
    e->trigger = NULL;
   132f4:	fec42783          	lw	a5,-20(s0)
   132f8:	0007a423          	sw	zero,8(a5)
    e->pos = 0;
   132fc:	fec42783          	lw	a5,-20(s0)
   13300:	0007a623          	sw	zero,12(a5)
    e->token = NULL;
   13304:	fec42783          	lw	a5,-20(s0)
   13308:	0007a823          	sw	zero,16(a5)
    e->is_dummy = false;
   1330c:	fec42783          	lw	a5,-20(s0)
   13310:	00078a23          	sb	zero,20(a5)
#ifdef FEDERATED_DECENTRALIZED
    e->intended_tag = (tag_t) { .time = NEVER, .microstep = 0u};
#endif
    e->next = NULL;
   13314:	fec42783          	lw	a5,-20(s0)
   13318:	0007ac23          	sw	zero,24(a5)
    pqueue_insert(recycle_q, e);
   1331c:	2f41a783          	lw	a5,756(gp) # 34ee4 <recycle_q>
   13320:	fec42583          	lw	a1,-20(s0)
   13324:	00078513          	mv	a0,a5
   13328:	cf4fe0ef          	jal	ra,1181c <pqueue_insert>
}
   1332c:	00000013          	nop
   13330:	01c12083          	lw	ra,28(sp)
   13334:	01812403          	lw	s0,24(sp)
   13338:	02010113          	addi	sp,sp,32
   1333c:	00008067          	ret

00013340 <_lf_create_dummy_events>:
 * @param time The logical time of that event.
 * @param next The event to place after the dummy events.
 * @param offset The number of dummy events to insert.
 * @return A pointer to the first dummy event.
 */
event_t* _lf_create_dummy_events(trigger_t* trigger, instant_t time, event_t* next, microstep_t offset) {
   13340:	fc010113          	addi	sp,sp,-64
   13344:	02112e23          	sw	ra,60(sp)
   13348:	02812c23          	sw	s0,56(sp)
   1334c:	04010413          	addi	s0,sp,64
   13350:	fca42e23          	sw	a0,-36(s0)
   13354:	fcb42823          	sw	a1,-48(s0)
   13358:	fcc42a23          	sw	a2,-44(s0)
   1335c:	fcd42c23          	sw	a3,-40(s0)
   13360:	fce42623          	sw	a4,-52(s0)
    event_t* first_dummy = _lf_get_new_event();
   13364:	f01ff0ef          	jal	ra,13264 <_lf_get_new_event>
   13368:	fea42423          	sw	a0,-24(s0)
    event_t* dummy = first_dummy;
   1336c:	fe842783          	lw	a5,-24(s0)
   13370:	fef42623          	sw	a5,-20(s0)
    dummy->time = time;
   13374:	fec42683          	lw	a3,-20(s0)
   13378:	fd042703          	lw	a4,-48(s0)
   1337c:	fd442783          	lw	a5,-44(s0)
   13380:	00e6a023          	sw	a4,0(a3)
   13384:	00f6a223          	sw	a5,4(a3)
    dummy->is_dummy = true;
   13388:	fec42783          	lw	a5,-20(s0)
   1338c:	00100713          	li	a4,1
   13390:	00e78a23          	sb	a4,20(a5)
    dummy->trigger = trigger;
   13394:	fec42783          	lw	a5,-20(s0)
   13398:	fdc42703          	lw	a4,-36(s0)
   1339c:	00e7a423          	sw	a4,8(a5)
    while (offset > 0) {
   133a0:	0740006f          	j	13414 <_lf_create_dummy_events+0xd4>
        if (offset == 1) {
   133a4:	fcc42703          	lw	a4,-52(s0)
   133a8:	00100793          	li	a5,1
   133ac:	00f71a63          	bne	a4,a5,133c0 <_lf_create_dummy_events+0x80>
            dummy->next = next;
   133b0:	fec42783          	lw	a5,-20(s0)
   133b4:	fd842703          	lw	a4,-40(s0)
   133b8:	00e7ac23          	sw	a4,24(a5)
            break;
   133bc:	0600006f          	j	1341c <_lf_create_dummy_events+0xdc>
        }
        dummy->next = _lf_get_new_event();
   133c0:	ea5ff0ef          	jal	ra,13264 <_lf_get_new_event>
   133c4:	00050713          	mv	a4,a0
   133c8:	fec42783          	lw	a5,-20(s0)
   133cc:	00e7ac23          	sw	a4,24(a5)
        dummy = dummy->next;
   133d0:	fec42783          	lw	a5,-20(s0)
   133d4:	0187a783          	lw	a5,24(a5)
   133d8:	fef42623          	sw	a5,-20(s0)
        dummy->time = time;
   133dc:	fec42683          	lw	a3,-20(s0)
   133e0:	fd042703          	lw	a4,-48(s0)
   133e4:	fd442783          	lw	a5,-44(s0)
   133e8:	00e6a023          	sw	a4,0(a3)
   133ec:	00f6a223          	sw	a5,4(a3)
        dummy->is_dummy = true;
   133f0:	fec42783          	lw	a5,-20(s0)
   133f4:	00100713          	li	a4,1
   133f8:	00e78a23          	sb	a4,20(a5)
        dummy->trigger = trigger;
   133fc:	fec42783          	lw	a5,-20(s0)
   13400:	fdc42703          	lw	a4,-36(s0)
   13404:	00e7a423          	sw	a4,8(a5)
        offset--;
   13408:	fcc42783          	lw	a5,-52(s0)
   1340c:	fff78793          	addi	a5,a5,-1
   13410:	fcf42623          	sw	a5,-52(s0)
    while (offset > 0) {
   13414:	fcc42783          	lw	a5,-52(s0)
   13418:	f80796e3          	bnez	a5,133a4 <_lf_create_dummy_events+0x64>
    }
    return first_dummy;
   1341c:	fe842783          	lw	a5,-24(s0)
}
   13420:	00078513          	mv	a0,a5
   13424:	03c12083          	lw	ra,60(sp)
   13428:	03812403          	lw	s0,56(sp)
   1342c:	04010113          	addi	sp,sp,64
   13430:	00008067          	ret

00013434 <_lf_replace_token>:
 * Replace the token on the specified event with the specified
 * token and free the old token.
 * @param event The event.
 * @param token The token.
 */
void _lf_replace_token(event_t* event, lf_token_t* token) {
   13434:	fe010113          	addi	sp,sp,-32
   13438:	00112e23          	sw	ra,28(sp)
   1343c:	00812c23          	sw	s0,24(sp)
   13440:	02010413          	addi	s0,sp,32
   13444:	fea42623          	sw	a0,-20(s0)
   13448:	feb42423          	sw	a1,-24(s0)
    if (event->token != token) {
   1344c:	fec42783          	lw	a5,-20(s0)
   13450:	0107a783          	lw	a5,16(a5)
   13454:	fe842703          	lw	a4,-24(s0)
   13458:	00f70a63          	beq	a4,a5,1346c <_lf_replace_token+0x38>
        // Free the existing token, if any
        _lf_done_using(event->token);
   1345c:	fec42783          	lw	a5,-20(s0)
   13460:	0107a783          	lw	a5,16(a5)
   13464:	00078513          	mv	a0,a5
   13468:	ce0ff0ef          	jal	ra,12948 <_lf_done_using>
    }
    // Replace the token with ours.
    event->token = token;
   1346c:	fec42783          	lw	a5,-20(s0)
   13470:	fe842703          	lw	a4,-24(s0)
   13474:	00e7a823          	sw	a4,16(a5)
}
   13478:	00000013          	nop
   1347c:	01c12083          	lw	ra,28(sp)
   13480:	01812403          	lw	s0,24(sp)
   13484:	02010113          	addi	sp,sp,32
   13488:	00008067          	ret

0001348c <_lf_schedule_at_tag>:
 * @param token The token wrapping the payload or NULL for no payload.
 * 
 * @return 1 for success, 0 if no new event was scheduled (instead, the payload was updated),
 *  or -1 for error (the tag is equal to or less than the current tag).
 */
int _lf_schedule_at_tag(trigger_t* trigger, tag_t tag, lf_token_t* token) {
   1348c:	f7010113          	addi	sp,sp,-144
   13490:	08112623          	sw	ra,140(sp)
   13494:	08812423          	sw	s0,136(sp)
   13498:	08912223          	sw	s1,132(sp)
   1349c:	09212023          	sw	s2,128(sp)
   134a0:	09010413          	addi	s0,sp,144
   134a4:	f8a42e23          	sw	a0,-100(s0)
   134a8:	00058493          	mv	s1,a1
   134ac:	f8c42c23          	sw	a2,-104(s0)

    tag_t current_logical_tag = get_current_tag();
   134b0:	fc840793          	addi	a5,s0,-56
   134b4:	00078513          	mv	a0,a5
   134b8:	ee1fc0ef          	jal	ra,10398 <get_current_tag>

    DEBUG_PRINT("_lf_schedule_at_tag() called with tag (%lld, %u) at tag (%lld, %u).",
                  tag.time - start_time, tag.microstep,
                  current_logical_tag.time - start_time, current_logical_tag.microstep);
    if (compare_tags(tag, current_logical_tag) <= 0) {
   134bc:	0004a603          	lw	a2,0(s1)
   134c0:	0044a683          	lw	a3,4(s1)
   134c4:	0084a703          	lw	a4,8(s1)
   134c8:	00c4a783          	lw	a5,12(s1)
   134cc:	f8c42023          	sw	a2,-128(s0)
   134d0:	f8d42223          	sw	a3,-124(s0)
   134d4:	f8e42423          	sw	a4,-120(s0)
   134d8:	f8f42623          	sw	a5,-116(s0)
   134dc:	fc842603          	lw	a2,-56(s0)
   134e0:	fcc42683          	lw	a3,-52(s0)
   134e4:	fd042703          	lw	a4,-48(s0)
   134e8:	fd442783          	lw	a5,-44(s0)
   134ec:	f6c42823          	sw	a2,-144(s0)
   134f0:	f6d42a23          	sw	a3,-140(s0)
   134f4:	f6e42c23          	sw	a4,-136(s0)
   134f8:	f6f42e23          	sw	a5,-132(s0)
   134fc:	f7040713          	addi	a4,s0,-144
   13500:	f8040793          	addi	a5,s0,-128
   13504:	00070593          	mv	a1,a4
   13508:	00078513          	mv	a0,a5
   1350c:	bc9fc0ef          	jal	ra,100d4 <compare_tags>
   13510:	00050793          	mv	a5,a0
   13514:	00f04c63          	bgtz	a5,1352c <_lf_schedule_at_tag+0xa0>
        warning_print("_lf_schedule_at_tag(): requested to schedule an event in the past.");
   13518:	000317b7          	lui	a5,0x31
   1351c:	60078513          	addi	a0,a5,1536 # 31600 <_exit+0x21c>
   13520:	d5dfe0ef          	jal	ra,1227c <warning_print>
        return -1;
   13524:	fff00793          	li	a5,-1
   13528:	46c0006f          	j	13994 <_lf_schedule_at_tag+0x508>
    }

    // Increment the reference count of the token.
    if (token != NULL) {
   1352c:	f9842783          	lw	a5,-104(s0)
   13530:	00078c63          	beqz	a5,13548 <_lf_schedule_at_tag+0xbc>
        token->ref_count++;
   13534:	f9842783          	lw	a5,-104(s0)
   13538:	00c7a783          	lw	a5,12(a5)
   1353c:	00178713          	addi	a4,a5,1
   13540:	f9842783          	lw	a5,-104(s0)
   13544:	00e7a623          	sw	a4,12(a5)
    }

    // Do not schedule events if the tag is after the stop tag
    if (_lf_is_tag_after_stop_tag(tag)) {
   13548:	0004a603          	lw	a2,0(s1)
   1354c:	0044a683          	lw	a3,4(s1)
   13550:	0084a703          	lw	a4,8(s1)
   13554:	00c4a783          	lw	a5,12(s1)
   13558:	f6c42823          	sw	a2,-144(s0)
   1355c:	f6d42a23          	sw	a3,-140(s0)
   13560:	f6e42c23          	sw	a4,-136(s0)
   13564:	f6f42e23          	sw	a5,-132(s0)
   13568:	f7040793          	addi	a5,s0,-144
   1356c:	00078513          	mv	a0,a5
   13570:	865ff0ef          	jal	ra,12dd4 <_lf_is_tag_after_stop_tag>
   13574:	00050793          	mv	a5,a0
   13578:	02078063          	beqz	a5,13598 <_lf_schedule_at_tag+0x10c>
        warning_print("_lf_schedule_at_tag: event time is past the timeout. Discarding event.");
   1357c:	000317b7          	lui	a5,0x31
   13580:	64478513          	addi	a0,a5,1604 # 31644 <_exit+0x260>
   13584:	cf9fe0ef          	jal	ra,1227c <warning_print>
        _lf_done_using(token);
   13588:	f9842503          	lw	a0,-104(s0)
   1358c:	bbcff0ef          	jal	ra,12948 <_lf_done_using>
        return -1;
   13590:	fff00793          	li	a5,-1
   13594:	4000006f          	j	13994 <_lf_schedule_at_tag+0x508>
    }
    
    event_t* e = _lf_get_new_event();
   13598:	ccdff0ef          	jal	ra,13264 <_lf_get_new_event>
   1359c:	fea42023          	sw	a0,-32(s0)
    // Set the event time
    e->time = tag.time;
   135a0:	0004a703          	lw	a4,0(s1)
   135a4:	0044a783          	lw	a5,4(s1)
   135a8:	fe042683          	lw	a3,-32(s0)
   135ac:	00e6a023          	sw	a4,0(a3)
   135b0:	00f6a223          	sw	a5,4(a3)
    
    tracepoint_schedule(trigger, tag.time - current_logical_tag.time);

    // Make sure the event points to this trigger so when it is
    // dequeued, it will trigger this trigger.
    e->trigger = trigger;
   135b4:	fe042783          	lw	a5,-32(s0)
   135b8:	f9c42703          	lw	a4,-100(s0)
   135bc:	00e7a423          	sw	a4,8(a5)

    // Set the payload.
    e->token = token;
   135c0:	fe042783          	lw	a5,-32(s0)
   135c4:	f9842703          	lw	a4,-104(s0)
   135c8:	00e7a823          	sw	a4,16(a5)
#ifdef FEDERATED_DECENTRALIZED
    // Set the intended tag
    e->intended_tag = trigger->intended_tag;
#endif

    event_t* found = (event_t *)pqueue_find_equal_same_priority(event_q, e);
   135cc:	2ec1a783          	lw	a5,748(gp) # 34edc <event_q>
   135d0:	fe042583          	lw	a1,-32(s0)
   135d4:	00078513          	mv	a0,a5
   135d8:	9b4fe0ef          	jal	ra,1178c <pqueue_find_equal_same_priority>
   135dc:	fea42623          	sw	a0,-20(s0)
    if (found != NULL) {
   135e0:	fec42783          	lw	a5,-20(s0)
   135e4:	2e078c63          	beqz	a5,138dc <_lf_schedule_at_tag+0x450>
        if (tag.microstep == 0u) {
   135e8:	0084a783          	lw	a5,8(s1)
   135ec:	0e079e63          	bnez	a5,136e8 <_lf_schedule_at_tag+0x25c>
                // The microstep is 0, which means that the event is being scheduled
                // at a future time and at the beginning of the skip list of events 
                // at that time.
                // In case the event is a dummy event
                // convert it to a real event.                
                found->is_dummy = false;
   135f0:	fec42783          	lw	a5,-20(s0)
   135f4:	00078a23          	sb	zero,20(a5)
                switch (trigger->policy) {
   135f8:	f9c42783          	lw	a5,-100(s0)
   135fc:	02c7a783          	lw	a5,44(a5)
   13600:	00100713          	li	a4,1
   13604:	00e78863          	beq	a5,a4,13614 <_lf_schedule_at_tag+0x188>
   13608:	00200713          	li	a4,2
   1360c:	02e78863          	beq	a5,a4,1363c <_lf_schedule_at_tag+0x1b0>
   13610:	0480006f          	j	13658 <_lf_schedule_at_tag+0x1cc>
                    case drop:
                        if (found->token != token) {
   13614:	fec42783          	lw	a5,-20(s0)
   13618:	0107a783          	lw	a5,16(a5)
   1361c:	f9842703          	lw	a4,-104(s0)
   13620:	00f70663          	beq	a4,a5,1362c <_lf_schedule_at_tag+0x1a0>
                            _lf_done_using(token);
   13624:	f9842503          	lw	a0,-104(s0)
   13628:	b20ff0ef          	jal	ra,12948 <_lf_done_using>
                        }
                        _lf_recycle_event(e);
   1362c:	fe042503          	lw	a0,-32(s0)
   13630:	c9dff0ef          	jal	ra,132cc <_lf_recycle_event>
                        return(0);
   13634:	00000793          	li	a5,0
   13638:	35c0006f          	j	13994 <_lf_schedule_at_tag+0x508>
                        break;
                    case replace:
                        // Replace the payload of the event at the head with our
                        // current payload.
                        _lf_replace_token(found, token);
   1363c:	f9842583          	lw	a1,-104(s0)
   13640:	fec42503          	lw	a0,-20(s0)
   13644:	df1ff0ef          	jal	ra,13434 <_lf_replace_token>
                        _lf_recycle_event(e);
   13648:	fe042503          	lw	a0,-32(s0)
   1364c:	c81ff0ef          	jal	ra,132cc <_lf_recycle_event>
                        return 0;
   13650:	00000793          	li	a5,0
   13654:	3400006f          	j	13994 <_lf_schedule_at_tag+0x508>
                        break;
                    default:
                        // Adding a microstep to the original
                        // intended tag.
                        if (_lf_is_tag_after_stop_tag((tag_t) {.time=found->time,.microstep=1})) {
   13658:	fec42783          	lw	a5,-20(s0)
   1365c:	0007a703          	lw	a4,0(a5)
   13660:	0047a783          	lw	a5,4(a5)
   13664:	fae42c23          	sw	a4,-72(s0)
   13668:	faf42e23          	sw	a5,-68(s0)
   1366c:	00100793          	li	a5,1
   13670:	fcf42023          	sw	a5,-64(s0)
   13674:	fb842603          	lw	a2,-72(s0)
   13678:	fbc42683          	lw	a3,-68(s0)
   1367c:	fc042703          	lw	a4,-64(s0)
   13680:	fc442783          	lw	a5,-60(s0)
   13684:	f6c42823          	sw	a2,-144(s0)
   13688:	f6d42a23          	sw	a3,-140(s0)
   1368c:	f6e42c23          	sw	a4,-136(s0)
   13690:	f6f42e23          	sw	a5,-132(s0)
   13694:	f7040793          	addi	a5,s0,-144
   13698:	00078513          	mv	a0,a5
   1369c:	f38ff0ef          	jal	ra,12dd4 <_lf_is_tag_after_stop_tag>
   136a0:	00050793          	mv	a5,a0
   136a4:	00078a63          	beqz	a5,136b8 <_lf_schedule_at_tag+0x22c>
                            // Scheduling e will incur a microstep after the stop tag, 
                            // which is illegal.
                            _lf_recycle_event(e);
   136a8:	fe042503          	lw	a0,-32(s0)
   136ac:	c21ff0ef          	jal	ra,132cc <_lf_recycle_event>
                            return 0;
   136b0:	00000793          	li	a5,0
   136b4:	2e00006f          	j	13994 <_lf_schedule_at_tag+0x508>
                        }
                        if (found->next != NULL) {
   136b8:	fec42783          	lw	a5,-20(s0)
   136bc:	0187a783          	lw	a5,24(a5)
   136c0:	00078c63          	beqz	a5,136d8 <_lf_schedule_at_tag+0x24c>
                            error_print("_lf_schedule_at_tag: in-order contract violated.");
   136c4:	000317b7          	lui	a5,0x31
   136c8:	68c78513          	addi	a0,a5,1676 # 3168c <_exit+0x2a8>
   136cc:	b39fe0ef          	jal	ra,12204 <error_print>
                            return -1;
   136d0:	fff00793          	li	a5,-1
   136d4:	2c00006f          	j	13994 <_lf_schedule_at_tag+0x508>
                        }
                        found->next = e;
   136d8:	fec42783          	lw	a5,-20(s0)
   136dc:	fe042703          	lw	a4,-32(s0)
   136e0:	00e7ac23          	sw	a4,24(a5)
   136e4:	2ac0006f          	j	13990 <_lf_schedule_at_tag+0x504>
            // where there is already an event for this trigger on the event queue.
            // That event may itself be a dummy event for a real event that is
            // also at a microstep greater than 0.
            // We have to insert our event into the chain or append it
            // to the end of the chain, depending on which microstep is lesser.
            microstep_t microstep_of_found = 0;
   136e8:	fe042423          	sw	zero,-24(s0)
            if (tag.time == current_logical_tag.time) {
   136ec:	0004a603          	lw	a2,0(s1)
   136f0:	0044a683          	lw	a3,4(s1)
   136f4:	fc842703          	lw	a4,-56(s0)
   136f8:	fcc42783          	lw	a5,-52(s0)
   136fc:	00060513          	mv	a0,a2
   13700:	00070593          	mv	a1,a4
   13704:	0ab51263          	bne	a0,a1,137a8 <_lf_schedule_at_tag+0x31c>
   13708:	0af69063          	bne	a3,a5,137a8 <_lf_schedule_at_tag+0x31c>
                // This is a situation where the head of the queue
                // is an event with microstep == current_microstep + 1
                // which should be reflected in our steps calculation.
                microstep_of_found += current_logical_tag.microstep + 1; // Indicating that
   1370c:	fd042703          	lw	a4,-48(s0)
   13710:	fe842783          	lw	a5,-24(s0)
   13714:	00f707b3          	add	a5,a4,a5
   13718:	00178793          	addi	a5,a5,1
   1371c:	fef42423          	sw	a5,-24(s0)
                                                            // the found event
                                                            // is at this microstep.
            }
            // Follow the chain of events until the right point
            // to insert the new event.
            while (microstep_of_found < tag.microstep - 1) {
   13720:	0880006f          	j	137a8 <_lf_schedule_at_tag+0x31c>
                if (found->next == NULL) {
   13724:	fec42783          	lw	a5,-20(s0)
   13728:	0187a783          	lw	a5,24(a5)
   1372c:	06079263          	bnez	a5,13790 <_lf_schedule_at_tag+0x304>
                    // The chain stops short of where we want to be.
                    // If it exactly one microstep short of where we want to be,
                    // then we don't need a dummy. Otherwise, we do.
                    microstep_t undershot_by = (tag.microstep - 1) - microstep_of_found;
   13730:	0084a703          	lw	a4,8(s1)
   13734:	fe842783          	lw	a5,-24(s0)
   13738:	40f707b3          	sub	a5,a4,a5
   1373c:	fff78793          	addi	a5,a5,-1
   13740:	fcf42e23          	sw	a5,-36(s0)
                    if (undershot_by > 0) {
   13744:	fdc42783          	lw	a5,-36(s0)
   13748:	02078a63          	beqz	a5,1377c <_lf_schedule_at_tag+0x2f0>
                        found->next = _lf_create_dummy_events(trigger, tag.time, e, undershot_by);
   1374c:	0004a503          	lw	a0,0(s1)
   13750:	0044a583          	lw	a1,4(s1)
   13754:	fdc42703          	lw	a4,-36(s0)
   13758:	fe042683          	lw	a3,-32(s0)
   1375c:	00058613          	mv	a2,a1
   13760:	00050593          	mv	a1,a0
   13764:	f9c42503          	lw	a0,-100(s0)
   13768:	bd9ff0ef          	jal	ra,13340 <_lf_create_dummy_events>
   1376c:	00050713          	mv	a4,a0
   13770:	fec42783          	lw	a5,-20(s0)
   13774:	00e7ac23          	sw	a4,24(a5)
   13778:	0100006f          	j	13788 <_lf_schedule_at_tag+0x2fc>
                    } else {
                        found->next = e;
   1377c:	fec42783          	lw	a5,-20(s0)
   13780:	fe042703          	lw	a4,-32(s0)
   13784:	00e7ac23          	sw	a4,24(a5)
                    }
                    return 1;
   13788:	00100793          	li	a5,1
   1378c:	2080006f          	j	13994 <_lf_schedule_at_tag+0x508>
                }
                found = found->next;
   13790:	fec42783          	lw	a5,-20(s0)
   13794:	0187a783          	lw	a5,24(a5)
   13798:	fef42623          	sw	a5,-20(s0)
                microstep_of_found++;
   1379c:	fe842783          	lw	a5,-24(s0)
   137a0:	00178793          	addi	a5,a5,1
   137a4:	fef42423          	sw	a5,-24(s0)
            while (microstep_of_found < tag.microstep - 1) {
   137a8:	0084a783          	lw	a5,8(s1)
   137ac:	fff78793          	addi	a5,a5,-1
   137b0:	fe842703          	lw	a4,-24(s0)
   137b4:	f6f768e3          	bltu	a4,a5,13724 <_lf_schedule_at_tag+0x298>
            }
            // At this point, microstep_of_found == tag.microstep - 1.
            if (found->next == NULL) {
   137b8:	fec42783          	lw	a5,-20(s0)
   137bc:	0187a783          	lw	a5,24(a5)
   137c0:	00079a63          	bnez	a5,137d4 <_lf_schedule_at_tag+0x348>
                found->next = e;
   137c4:	fec42783          	lw	a5,-20(s0)
   137c8:	fe042703          	lw	a4,-32(s0)
   137cc:	00e7ac23          	sw	a4,24(a5)
   137d0:	1c00006f          	j	13990 <_lf_schedule_at_tag+0x504>
            } else {
                switch (trigger->policy) {
   137d4:	f9c42783          	lw	a5,-100(s0)
   137d8:	02c7a783          	lw	a5,44(a5)
   137dc:	00100713          	li	a4,1
   137e0:	00e78863          	beq	a5,a4,137f0 <_lf_schedule_at_tag+0x364>
   137e4:	00200713          	li	a4,2
   137e8:	02e78a63          	beq	a5,a4,1381c <_lf_schedule_at_tag+0x390>
   137ec:	0540006f          	j	13840 <_lf_schedule_at_tag+0x3b4>
                    case drop:
                        if (found->next->token != token) {
   137f0:	fec42783          	lw	a5,-20(s0)
   137f4:	0187a783          	lw	a5,24(a5)
   137f8:	0107a783          	lw	a5,16(a5)
   137fc:	f9842703          	lw	a4,-104(s0)
   13800:	00f70663          	beq	a4,a5,1380c <_lf_schedule_at_tag+0x380>
                            _lf_done_using(token);
   13804:	f9842503          	lw	a0,-104(s0)
   13808:	940ff0ef          	jal	ra,12948 <_lf_done_using>
                        }
                        _lf_recycle_event(e);
   1380c:	fe042503          	lw	a0,-32(s0)
   13810:	abdff0ef          	jal	ra,132cc <_lf_recycle_event>
                        return 0;
   13814:	00000793          	li	a5,0
   13818:	17c0006f          	j	13994 <_lf_schedule_at_tag+0x508>
                        break;
                    case replace:
                        // Replace the payload of the event at the head with our
                        // current payload.
                        _lf_replace_token(found->next, token);
   1381c:	fec42783          	lw	a5,-20(s0)
   13820:	0187a783          	lw	a5,24(a5)
   13824:	f9842583          	lw	a1,-104(s0)
   13828:	00078513          	mv	a0,a5
   1382c:	c09ff0ef          	jal	ra,13434 <_lf_replace_token>
                        _lf_recycle_event(e);
   13830:	fe042503          	lw	a0,-32(s0)
   13834:	a99ff0ef          	jal	ra,132cc <_lf_recycle_event>
                        return 0;
   13838:	00000793          	li	a5,0
   1383c:	1580006f          	j	13994 <_lf_schedule_at_tag+0x508>
                        break;
                    default:
                        // Adding a microstep to the original
                        // intended tag.
                        if (_lf_is_tag_after_stop_tag((tag_t){.time=found->time,.microstep=microstep_of_found+1})) {
   13840:	fec42783          	lw	a5,-20(s0)
   13844:	0007a703          	lw	a4,0(a5)
   13848:	0047a783          	lw	a5,4(a5)
   1384c:	fae42423          	sw	a4,-88(s0)
   13850:	faf42623          	sw	a5,-84(s0)
   13854:	fe842783          	lw	a5,-24(s0)
   13858:	00178793          	addi	a5,a5,1
   1385c:	faf42823          	sw	a5,-80(s0)
   13860:	fa842603          	lw	a2,-88(s0)
   13864:	fac42683          	lw	a3,-84(s0)
   13868:	fb042703          	lw	a4,-80(s0)
   1386c:	fb442783          	lw	a5,-76(s0)
   13870:	f6c42823          	sw	a2,-144(s0)
   13874:	f6d42a23          	sw	a3,-140(s0)
   13878:	f6e42c23          	sw	a4,-136(s0)
   1387c:	f6f42e23          	sw	a5,-132(s0)
   13880:	f7040793          	addi	a5,s0,-144
   13884:	00078513          	mv	a0,a5
   13888:	d4cff0ef          	jal	ra,12dd4 <_lf_is_tag_after_stop_tag>
   1388c:	00050793          	mv	a5,a0
   13890:	00078a63          	beqz	a5,138a4 <_lf_schedule_at_tag+0x418>
                            // Scheduling e will incur a microstep at timeout, 
                            // which is illegal.
                            _lf_recycle_event(e);
   13894:	fe042503          	lw	a0,-32(s0)
   13898:	a35ff0ef          	jal	ra,132cc <_lf_recycle_event>
                            return 0;
   1389c:	00000793          	li	a5,0
   138a0:	0f40006f          	j	13994 <_lf_schedule_at_tag+0x508>
                        }
                        if (found->next->next != NULL) {
   138a4:	fec42783          	lw	a5,-20(s0)
   138a8:	0187a783          	lw	a5,24(a5)
   138ac:	0187a783          	lw	a5,24(a5)
   138b0:	00078c63          	beqz	a5,138c8 <_lf_schedule_at_tag+0x43c>
                            error_print("_lf_schedule_at_tag: in-order contract violated.");
   138b4:	000317b7          	lui	a5,0x31
   138b8:	68c78513          	addi	a0,a5,1676 # 3168c <_exit+0x2a8>
   138bc:	949fe0ef          	jal	ra,12204 <error_print>
                            return -1;
   138c0:	fff00793          	li	a5,-1
   138c4:	0d00006f          	j	13994 <_lf_schedule_at_tag+0x508>
                        }
                        found->next->next = e;
   138c8:	fec42783          	lw	a5,-20(s0)
   138cc:	0187a783          	lw	a5,24(a5)
   138d0:	fe042703          	lw	a4,-32(s0)
   138d4:	00e7ac23          	sw	a4,24(a5)
   138d8:	0b80006f          	j	13990 <_lf_schedule_at_tag+0x504>
                }
            }
        }
    } else {
        // No existing event queued.
        microstep_t relative_microstep = tag.microstep;
   138dc:	0084a783          	lw	a5,8(s1)
   138e0:	fef42223          	sw	a5,-28(s0)
        if (tag.time == current_logical_tag.time) {
   138e4:	0004a603          	lw	a2,0(s1)
   138e8:	0044a683          	lw	a3,4(s1)
   138ec:	fc842703          	lw	a4,-56(s0)
   138f0:	fcc42783          	lw	a5,-52(s0)
   138f4:	00060513          	mv	a0,a2
   138f8:	00070593          	mv	a1,a4
   138fc:	00b51c63          	bne	a0,a1,13914 <_lf_schedule_at_tag+0x488>
   13900:	00f69a63          	bne	a3,a5,13914 <_lf_schedule_at_tag+0x488>
            relative_microstep -= current_logical_tag.microstep;
   13904:	fd042783          	lw	a5,-48(s0)
   13908:	fe442703          	lw	a4,-28(s0)
   1390c:	40f707b3          	sub	a5,a4,a5
   13910:	fef42223          	sw	a5,-28(s0)
        }
        if (((tag.time == current_logical_tag.time) && (relative_microstep == 1)) ||
   13914:	0004a603          	lw	a2,0(s1)
   13918:	0044a683          	lw	a3,4(s1)
   1391c:	fc842703          	lw	a4,-56(s0)
   13920:	fcc42783          	lw	a5,-52(s0)
   13924:	00060513          	mv	a0,a2
   13928:	00070593          	mv	a1,a4
   1392c:	00b51a63          	bne	a0,a1,13940 <_lf_schedule_at_tag+0x4b4>
   13930:	00f69863          	bne	a3,a5,13940 <_lf_schedule_at_tag+0x4b4>
   13934:	fe442703          	lw	a4,-28(s0)
   13938:	00100793          	li	a5,1
   1393c:	00f70663          	beq	a4,a5,13948 <_lf_schedule_at_tag+0x4bc>
                tag.microstep == 0) {
   13940:	0084a783          	lw	a5,8(s1)
        if (((tag.time == current_logical_tag.time) && (relative_microstep == 1)) ||
   13944:	00079c63          	bnez	a5,1395c <_lf_schedule_at_tag+0x4d0>
            // Do not need a dummy event if we are scheduling at 1 microstep
            // in the future at current time or at microstep 0 in a future time.
            pqueue_insert(event_q, e);
   13948:	2ec1a783          	lw	a5,748(gp) # 34edc <event_q>
   1394c:	fe042583          	lw	a1,-32(s0)
   13950:	00078513          	mv	a0,a5
   13954:	ec9fd0ef          	jal	ra,1181c <pqueue_insert>
   13958:	0380006f          	j	13990 <_lf_schedule_at_tag+0x504>
        } else {
            // Create a dummy event. Insert it into the queue, and let its next
            // pointer point to the actual event.
            pqueue_insert(event_q, _lf_create_dummy_events(trigger, tag.time, e, relative_microstep));
   1395c:	2ec1a903          	lw	s2,748(gp) # 34edc <event_q>
   13960:	0004a503          	lw	a0,0(s1)
   13964:	0044a583          	lw	a1,4(s1)
   13968:	fe442703          	lw	a4,-28(s0)
   1396c:	fe042683          	lw	a3,-32(s0)
   13970:	00058613          	mv	a2,a1
   13974:	00050593          	mv	a1,a0
   13978:	f9c42503          	lw	a0,-100(s0)
   1397c:	9c5ff0ef          	jal	ra,13340 <_lf_create_dummy_events>
   13980:	00050793          	mv	a5,a0
   13984:	00078593          	mv	a1,a5
   13988:	00090513          	mv	a0,s2
   1398c:	e91fd0ef          	jal	ra,1181c <pqueue_insert>
        }
    }
    return 1;
   13990:	00100793          	li	a5,1
}
   13994:	00078513          	mv	a0,a5
   13998:	08c12083          	lw	ra,140(sp)
   1399c:	08812403          	lw	s0,136(sp)
   139a0:	08412483          	lw	s1,132(sp)
   139a4:	08012903          	lw	s2,128(sp)
   139a8:	09010113          	addi	sp,sp,144
   139ac:	00008067          	ret

000139b0 <_lf_schedule>:
 *  trigger's minimum delay, if it has one. If this number is negative,
 *  then zero is used instead.
 * @param token The token wrapping the payload or NULL for no payload.
 * @return A handle to the event, or 0 if no new event was scheduled, or -1 for error.
 */
trigger_handle_t _lf_schedule(trigger_t* trigger, interval_t extra_delay, lf_token_t* token) {
   139b0:	f6010113          	addi	sp,sp,-160
   139b4:	08112e23          	sw	ra,156(sp)
   139b8:	08812c23          	sw	s0,152(sp)
   139bc:	0a010413          	addi	s0,sp,160
   139c0:	f6a42e23          	sw	a0,-132(s0)
   139c4:	f6b42823          	sw	a1,-144(s0)
   139c8:	f6c42a23          	sw	a2,-140(s0)
   139cc:	f6d42c23          	sw	a3,-136(s0)
    if (_lf_is_tag_after_stop_tag(current_tag)) {
   139d0:	34818793          	addi	a5,gp,840 # 34f38 <current_tag>
   139d4:	0007a603          	lw	a2,0(a5)
   139d8:	0047a683          	lw	a3,4(a5)
   139dc:	0087a703          	lw	a4,8(a5)
   139e0:	00c7a783          	lw	a5,12(a5)
   139e4:	f6c42023          	sw	a2,-160(s0)
   139e8:	f6d42223          	sw	a3,-156(s0)
   139ec:	f6e42423          	sw	a4,-152(s0)
   139f0:	f6f42623          	sw	a5,-148(s0)
   139f4:	f6040793          	addi	a5,s0,-160
   139f8:	00078513          	mv	a0,a5
   139fc:	bd8ff0ef          	jal	ra,12dd4 <_lf_is_tag_after_stop_tag>
   13a00:	00050793          	mv	a5,a0
   13a04:	02078063          	beqz	a5,13a24 <_lf_schedule+0x74>
        // If schedule is called after stop_tag
        // This is a critical condition.
        _lf_done_using(token);
   13a08:	f7842503          	lw	a0,-136(s0)
   13a0c:	f3dfe0ef          	jal	ra,12948 <_lf_done_using>
        warning_print("schedule() called after stop tag.");
   13a10:	000317b7          	lui	a5,0x31
   13a14:	6c078513          	addi	a0,a5,1728 # 316c0 <_exit+0x2dc>
   13a18:	865fe0ef          	jal	ra,1227c <warning_print>
        return 0;
   13a1c:	00000793          	li	a5,0
   13a20:	6780006f          	j	14098 <_lf_schedule+0x6e8>
    }

    if (extra_delay < 0LL) {
   13a24:	f7442783          	lw	a5,-140(s0)
   13a28:	0207d463          	bgez	a5,13a50 <_lf_schedule+0xa0>
        warning_print("schedule called with a negative extra_delay %lld. Replacing with zero.", extra_delay);
   13a2c:	f7042603          	lw	a2,-144(s0)
   13a30:	f7442683          	lw	a3,-140(s0)
   13a34:	000317b7          	lui	a5,0x31
   13a38:	6e478513          	addi	a0,a5,1764 # 316e4 <_exit+0x300>
   13a3c:	841fe0ef          	jal	ra,1227c <warning_print>
        extra_delay = 0LL;
   13a40:	00000793          	li	a5,0
   13a44:	00000813          	li	a6,0
   13a48:	f6f42823          	sw	a5,-144(s0)
   13a4c:	f7042a23          	sw	a6,-140(s0)
            trigger, extra_delay, token);
    
	// The trigger argument could be null, meaning that nothing is triggered.
    // Doing this after incrementing the reference count ensures that the
    // payload will be freed, if there is one.
	if (trigger == NULL) {
   13a50:	f7c42783          	lw	a5,-132(s0)
   13a54:	00079a63          	bnez	a5,13a68 <_lf_schedule+0xb8>
	    _lf_done_using(token);
   13a58:	f7842503          	lw	a0,-136(s0)
   13a5c:	eedfe0ef          	jal	ra,12948 <_lf_done_using>
	    return 0;
   13a60:	00000793          	li	a5,0
   13a64:	6340006f          	j	14098 <_lf_schedule+0x6e8>
	}

    // Increment the reference count of the token.
	if (token != NULL) {
   13a68:	f7842783          	lw	a5,-136(s0)
   13a6c:	00078c63          	beqz	a5,13a84 <_lf_schedule+0xd4>
	    token->ref_count++;
   13a70:	f7842783          	lw	a5,-136(s0)
   13a74:	00c7a783          	lw	a5,12(a5)
   13a78:	00178713          	addi	a4,a5,1
   13a7c:	f7842783          	lw	a5,-136(s0)
   13a80:	00e7a623          	sw	a4,12(a5)
	}

    // Compute the tag (the logical timestamp for the future event).
	// We first do this assuming it is logical action and then, if it is a
	// physical action, modify it if physical time exceeds the result.
    interval_t delay = extra_delay;
   13a84:	f7042703          	lw	a4,-144(s0)
   13a88:	f7442783          	lw	a5,-140(s0)
   13a8c:	fce42c23          	sw	a4,-40(s0)
   13a90:	fcf42e23          	sw	a5,-36(s0)
    // Add the offset if this is not a timer because, in that case,
    // it is the minimum delay.
    if (!trigger->is_timer) {
   13a94:	f7c42783          	lw	a5,-132(s0)
   13a98:	0087c783          	lbu	a5,8(a5)
   13a9c:	0017c793          	xori	a5,a5,1
   13aa0:	0ff7f793          	andi	a5,a5,255
   13aa4:	02078c63          	beqz	a5,13adc <_lf_schedule+0x12c>
    	delay += trigger->offset;
   13aa8:	f7c42783          	lw	a5,-132(s0)
   13aac:	0107a503          	lw	a0,16(a5)
   13ab0:	0147a583          	lw	a1,20(a5)
   13ab4:	fd842603          	lw	a2,-40(s0)
   13ab8:	fdc42683          	lw	a3,-36(s0)
   13abc:	00a60733          	add	a4,a2,a0
   13ac0:	00070813          	mv	a6,a4
   13ac4:	00c83833          	sltu	a6,a6,a2
   13ac8:	00b687b3          	add	a5,a3,a1
   13acc:	00f806b3          	add	a3,a6,a5
   13ad0:	00068793          	mv	a5,a3
   13ad4:	fce42c23          	sw	a4,-40(s0)
   13ad8:	fcf42e23          	sw	a5,-36(s0)
    }
    interval_t intended_time = current_tag.time + delay;
   13adc:	34818793          	addi	a5,gp,840 # 34f38 <current_tag>
   13ae0:	0007a503          	lw	a0,0(a5)
   13ae4:	0047a583          	lw	a1,4(a5)
   13ae8:	fd842603          	lw	a2,-40(s0)
   13aec:	fdc42683          	lw	a3,-36(s0)
   13af0:	00a60733          	add	a4,a2,a0
   13af4:	00070813          	mv	a6,a4
   13af8:	00c83833          	sltu	a6,a6,a2
   13afc:	00b687b3          	add	a5,a3,a1
   13b00:	00f806b3          	add	a3,a6,a5
   13b04:	00068793          	mv	a5,a3
   13b08:	fee42423          	sw	a4,-24(s0)
   13b0c:	fef42623          	sw	a5,-20(s0)
    DEBUG_PRINT("_lf_schedule: current_tag.time = %lld. Total logical delay = %lld",
            current_tag.time, delay);
    interval_t min_spacing = trigger->period;
   13b10:	f7c42783          	lw	a5,-132(s0)
   13b14:	0187a703          	lw	a4,24(a5)
   13b18:	01c7a783          	lw	a5,28(a5)
   13b1c:	fce42823          	sw	a4,-48(s0)
   13b20:	fcf42a23          	sw	a5,-44(s0)

    event_t* e = _lf_get_new_event();
   13b24:	f40ff0ef          	jal	ra,13264 <_lf_get_new_event>
   13b28:	fca42623          	sw	a0,-52(s0)
    
    // Initialize the next pointer.
    e->next = NULL;
   13b2c:	fcc42783          	lw	a5,-52(s0)
   13b30:	0007ac23          	sw	zero,24(a5)

    // Set the payload.
    e->token = token;
   13b34:	fcc42783          	lw	a5,-52(s0)
   13b38:	f7842703          	lw	a4,-136(s0)
   13b3c:	00e7a823          	sw	a4,16(a5)

    // Make sure the event points to this trigger so when it is
    // dequeued, it will trigger this trigger.
    e->trigger = trigger;
   13b40:	fcc42783          	lw	a5,-52(s0)
   13b44:	f7c42703          	lw	a4,-132(s0)
   13b48:	00e7a423          	sw	a4,8(a5)

    // If the trigger is physical, then we need to check whether
    // physical time is larger than the intended time and, if so,
    // modify the intended time.
    if (trigger->is_physical) {
   13b4c:	f7c42783          	lw	a5,-132(s0)
   13b50:	0247c783          	lbu	a5,36(a5)
   13b54:	02078a63          	beqz	a5,13b88 <_lf_schedule+0x1d8>
        // Get the current physical time and assign it as the intended time.
        intended_time = get_physical_time() + delay;
   13b58:	8d9fc0ef          	jal	ra,10430 <get_physical_time>
   13b5c:	fd842603          	lw	a2,-40(s0)
   13b60:	fdc42683          	lw	a3,-36(s0)
   13b64:	00a60733          	add	a4,a2,a0
   13b68:	00070813          	mv	a6,a4
   13b6c:	00c83833          	sltu	a6,a6,a2
   13b70:	00b687b3          	add	a5,a3,a1
   13b74:	00f806b3          	add	a3,a6,a5
   13b78:	00068793          	mv	a5,a3
   13b7c:	fee42423          	sw	a4,-24(s0)
   13b80:	fef42623          	sw	a5,-20(s0)
   13b84:	08c0006f          	j	13c10 <_lf_schedule+0x260>
        // done) the computed tag can be smaller than the current tag, in which case
        // it needs to be adjusted.
        // FIXME: This can go away once:
        // - we have eliminated the possibility to have a negative additional delay; and
        // - we detect the asynchronous use of logical actions
        if (intended_time < current_tag.time) {
   13b88:	34818793          	addi	a5,gp,840 # 34f38 <current_tag>
   13b8c:	0007a703          	lw	a4,0(a5)
   13b90:	0047a783          	lw	a5,4(a5)
   13b94:	fec42683          	lw	a3,-20(s0)
   13b98:	00078613          	mv	a2,a5
   13b9c:	00c6ce63          	blt	a3,a2,13bb8 <_lf_schedule+0x208>
   13ba0:	fec42683          	lw	a3,-20(s0)
   13ba4:	00078613          	mv	a2,a5
   13ba8:	06c69463          	bne	a3,a2,13c10 <_lf_schedule+0x260>
   13bac:	fe842683          	lw	a3,-24(s0)
   13bb0:	00070793          	mv	a5,a4
   13bb4:	04f6fe63          	bgeu	a3,a5,13c10 <_lf_schedule+0x260>
            warning_print("Attempting to schedule an event earlier than current time by %lld nsec! "
                    "Revising to the current time %lld.",
                    current_tag.time - intended_time, current_tag.time);
   13bb8:	34818793          	addi	a5,gp,840 # 34f38 <current_tag>
   13bbc:	0007a703          	lw	a4,0(a5)
   13bc0:	0047a783          	lw	a5,4(a5)
            warning_print("Attempting to schedule an event earlier than current time by %lld nsec! "
   13bc4:	fe842503          	lw	a0,-24(s0)
   13bc8:	fec42583          	lw	a1,-20(s0)
   13bcc:	40a70633          	sub	a2,a4,a0
   13bd0:	00060813          	mv	a6,a2
   13bd4:	01073833          	sltu	a6,a4,a6
   13bd8:	40b786b3          	sub	a3,a5,a1
   13bdc:	410687b3          	sub	a5,a3,a6
   13be0:	00078693          	mv	a3,a5
   13be4:	34818793          	addi	a5,gp,840 # 34f38 <current_tag>
   13be8:	0007a703          	lw	a4,0(a5)
   13bec:	0047a783          	lw	a5,4(a5)
   13bf0:	000315b7          	lui	a1,0x31
   13bf4:	72c58513          	addi	a0,a1,1836 # 3172c <_exit+0x348>
   13bf8:	e84fe0ef          	jal	ra,1227c <warning_print>
            intended_time = current_tag.time;
   13bfc:	34818793          	addi	a5,gp,840 # 34f38 <current_tag>
   13c00:	0007a703          	lw	a4,0(a5)
   13c04:	0047a783          	lw	a5,4(a5)
   13c08:	fee42423          	sw	a4,-24(s0)
   13c0c:	fef42623          	sw	a5,-20(s0)
    // Event inherits the original intended_tag of the trigger
    // set by the network stack (or the default, which is (NEVER,0))
    e->intended_tag = trigger->intended_tag;
#endif
    
    event_t* existing = (event_t*)(trigger->last);
   13c10:	f7c42783          	lw	a5,-132(s0)
   13c14:	0287a783          	lw	a5,40(a5)
   13c18:	fcf42423          	sw	a5,-56(s0)
    // Check for conflicts (a queued event with the same trigger and time).
    if (trigger->period < 0) {
   13c1c:	f7c42783          	lw	a5,-132(s0)
   13c20:	0187a703          	lw	a4,24(a5)
   13c24:	01c7a783          	lw	a5,28(a5)
   13c28:	0c07da63          	bgez	a5,13cfc <_lf_schedule+0x34c>
        // No minimum spacing defined.
        tag_t intended_tag = (tag_t) {.time = intended_time, .microstep = 0u};
   13c2c:	fe842703          	lw	a4,-24(s0)
   13c30:	fec42783          	lw	a5,-20(s0)
   13c34:	fae42423          	sw	a4,-88(s0)
   13c38:	faf42623          	sw	a5,-84(s0)
   13c3c:	fa042823          	sw	zero,-80(s0)
        e->time = intended_tag.time;
   13c40:	fa842703          	lw	a4,-88(s0)
   13c44:	fac42783          	lw	a5,-84(s0)
   13c48:	fcc42683          	lw	a3,-52(s0)
   13c4c:	00e6a023          	sw	a4,0(a3)
   13c50:	00f6a223          	sw	a5,4(a3)
        event_t* found = (event_t *)pqueue_find_equal_same_priority(event_q, e);
   13c54:	2ec1a783          	lw	a5,748(gp) # 34edc <event_q>
   13c58:	fcc42583          	lw	a1,-52(s0)
   13c5c:	00078513          	mv	a0,a5
   13c60:	b2dfd0ef          	jal	ra,1178c <pqueue_find_equal_same_priority>
   13c64:	fea42223          	sw	a0,-28(s0)
        // Check for conflicts. Let events pile up in super dense time.
        if (found != NULL) {
   13c68:	fe442783          	lw	a5,-28(s0)
   13c6c:	2e078c63          	beqz	a5,13f64 <_lf_schedule+0x5b4>
            intended_tag.microstep++;
   13c70:	fb042783          	lw	a5,-80(s0)
   13c74:	00178793          	addi	a5,a5,1
   13c78:	faf42823          	sw	a5,-80(s0)
            // Skip to the last node in the linked list.
            while(found->next != NULL) {
   13c7c:	01c0006f          	j	13c98 <_lf_schedule+0x2e8>
                found = found->next;
   13c80:	fe442783          	lw	a5,-28(s0)
   13c84:	0187a783          	lw	a5,24(a5)
   13c88:	fef42223          	sw	a5,-28(s0)
                intended_tag.microstep++;
   13c8c:	fb042783          	lw	a5,-80(s0)
   13c90:	00178793          	addi	a5,a5,1
   13c94:	faf42823          	sw	a5,-80(s0)
            while(found->next != NULL) {
   13c98:	fe442783          	lw	a5,-28(s0)
   13c9c:	0187a783          	lw	a5,24(a5)
   13ca0:	fe0790e3          	bnez	a5,13c80 <_lf_schedule+0x2d0>
            }
            if (_lf_is_tag_after_stop_tag(intended_tag)) {
   13ca4:	fa842603          	lw	a2,-88(s0)
   13ca8:	fac42683          	lw	a3,-84(s0)
   13cac:	fb042703          	lw	a4,-80(s0)
   13cb0:	fb442783          	lw	a5,-76(s0)
   13cb4:	f6c42023          	sw	a2,-160(s0)
   13cb8:	f6d42223          	sw	a3,-156(s0)
   13cbc:	f6e42423          	sw	a4,-152(s0)
   13cc0:	f6f42623          	sw	a5,-148(s0)
   13cc4:	f6040793          	addi	a5,s0,-160
   13cc8:	00078513          	mv	a0,a5
   13ccc:	908ff0ef          	jal	ra,12dd4 <_lf_is_tag_after_stop_tag>
   13cd0:	00050793          	mv	a5,a0
   13cd4:	00078a63          	beqz	a5,13ce8 <_lf_schedule+0x338>
                DEBUG_PRINT("Attempt to schedule an event after stop_tag was rejected.");
                // Scheduling an event will incur a microstep
                // after the stop tag.
                _lf_recycle_event(e);
   13cd8:	fcc42503          	lw	a0,-52(s0)
   13cdc:	df0ff0ef          	jal	ra,132cc <_lf_recycle_event>
                return 0;
   13ce0:	00000793          	li	a5,0
   13ce4:	3b40006f          	j	14098 <_lf_schedule+0x6e8>
            }
            // Hook the event into the list.
            found->next = e;
   13ce8:	fe442783          	lw	a5,-28(s0)
   13cec:	fcc42703          	lw	a4,-52(s0)
   13cf0:	00e7ac23          	sw	a4,24(a5)
            return(0); // FIXME: return value
   13cf4:	00000793          	li	a5,0
   13cf8:	3a00006f          	j	14098 <_lf_schedule+0x6e8>
        }
        // If there are not conflicts, schedule as usual. If intended time is
        // equal to the current logical time, the event will effectively be 
        // scheduled at the next microstep.
    } else if (!trigger->is_timer && existing != NULL) { 
   13cfc:	f7c42783          	lw	a5,-132(s0)
   13d00:	0087c783          	lbu	a5,8(a5)
   13d04:	0017c793          	xori	a5,a5,1
   13d08:	0ff7f793          	andi	a5,a5,255
   13d0c:	24078a63          	beqz	a5,13f60 <_lf_schedule+0x5b0>
   13d10:	fc842783          	lw	a5,-56(s0)
   13d14:	24078663          	beqz	a5,13f60 <_lf_schedule+0x5b0>
        // There exists a previously scheduled event. It determines the
        // earliest time at which the new event can be scheduled.
        // Check to see whether the event is too early. 
        instant_t earliest_time = existing->time + min_spacing;
   13d18:	fc842783          	lw	a5,-56(s0)
   13d1c:	0007a503          	lw	a0,0(a5)
   13d20:	0047a583          	lw	a1,4(a5)
   13d24:	fd042603          	lw	a2,-48(s0)
   13d28:	fd442683          	lw	a3,-44(s0)
   13d2c:	00a60733          	add	a4,a2,a0
   13d30:	00070813          	mv	a6,a4
   13d34:	00c83833          	sltu	a6,a6,a2
   13d38:	00b687b3          	add	a5,a3,a1
   13d3c:	00f806b3          	add	a3,a6,a5
   13d40:	00068793          	mv	a5,a3
   13d44:	fce42023          	sw	a4,-64(s0)
   13d48:	fcf42223          	sw	a5,-60(s0)
        DEBUG_PRINT("There is a previously scheduled event; earliest possible time "
                "with min spacing: %lld",
                earliest_time);
        // If the event is early, see which policy applies.
        if (earliest_time >= intended_time) {
   13d4c:	fec42703          	lw	a4,-20(s0)
   13d50:	fc442783          	lw	a5,-60(s0)
   13d54:	20e7c863          	blt	a5,a4,13f64 <_lf_schedule+0x5b4>
   13d58:	fec42703          	lw	a4,-20(s0)
   13d5c:	fc442783          	lw	a5,-60(s0)
   13d60:	00f71863          	bne	a4,a5,13d70 <_lf_schedule+0x3c0>
   13d64:	fe842703          	lw	a4,-24(s0)
   13d68:	fc042783          	lw	a5,-64(s0)
   13d6c:	1ee7ec63          	bltu	a5,a4,13f64 <_lf_schedule+0x5b4>
            DEBUG_PRINT("Event is early.");
            switch(trigger->policy) {
   13d70:	f7c42783          	lw	a5,-132(s0)
   13d74:	02c7a783          	lw	a5,44(a5)
   13d78:	00100713          	li	a4,1
   13d7c:	00e78863          	beq	a5,a4,13d8c <_lf_schedule+0x3dc>
   13d80:	00200713          	li	a4,2
   13d84:	06e78063          	beq	a5,a4,13de4 <_lf_schedule+0x434>
   13d88:	1080006f          	j	13e90 <_lf_schedule+0x4e0>
                case drop:
                    DEBUG_PRINT("Policy is drop. Dropping the event.");
                    if (min_spacing > 0 || 
   13d8c:	fd442783          	lw	a5,-44(s0)
   13d90:	02f04663          	bgtz	a5,13dbc <_lf_schedule+0x40c>
   13d94:	fd442783          	lw	a5,-44(s0)
   13d98:	00079663          	bnez	a5,13da4 <_lf_schedule+0x3f4>
   13d9c:	fd042783          	lw	a5,-48(s0)
   13da0:	00079e63          	bnez	a5,13dbc <_lf_schedule+0x40c>
                            pqueue_find_equal_same_priority(event_q, existing) != NULL) {
   13da4:	2ec1a783          	lw	a5,748(gp) # 34edc <event_q>
   13da8:	fc842583          	lw	a1,-56(s0)
   13dac:	00078513          	mv	a0,a5
   13db0:	9ddfd0ef          	jal	ra,1178c <pqueue_find_equal_same_priority>
   13db4:	00050793          	mv	a5,a0
                    if (min_spacing > 0 || 
   13db8:	02078663          	beqz	a5,13de4 <_lf_schedule+0x434>
                        // Recycle the new event and the token.
                        if (existing->token != token) {
   13dbc:	fc842783          	lw	a5,-56(s0)
   13dc0:	0107a783          	lw	a5,16(a5)
   13dc4:	f7842703          	lw	a4,-136(s0)
   13dc8:	00f70663          	beq	a4,a5,13dd4 <_lf_schedule+0x424>
                            _lf_done_using(token);
   13dcc:	f7842503          	lw	a0,-136(s0)
   13dd0:	b79fe0ef          	jal	ra,12948 <_lf_done_using>
                        }
                        _lf_recycle_event(e);
   13dd4:	fcc42503          	lw	a0,-52(s0)
   13dd8:	cf4ff0ef          	jal	ra,132cc <_lf_recycle_event>
                        return(0);
   13ddc:	00000793          	li	a5,0
   13de0:	2b80006f          	j	14098 <_lf_schedule+0x6e8>
                    // existing->time < current_tag.time case below).
                    // NOTE: Because microsteps are not explicit, if the tag of
                    // the preceding event is equal to the current time, then
                    // we search the event queue to figure out whether it has
                    // been handled yet.
                    if (existing->time > current_tag.time ||
   13de4:	fc842783          	lw	a5,-56(s0)
   13de8:	0007a603          	lw	a2,0(a5)
   13dec:	0047a683          	lw	a3,4(a5)
   13df0:	34818793          	addi	a5,gp,840 # 34f38 <current_tag>
   13df4:	0007a703          	lw	a4,0(a5)
   13df8:	0047a783          	lw	a5,4(a5)
   13dfc:	00068513          	mv	a0,a3
   13e00:	00078593          	mv	a1,a5
   13e04:	04a5ce63          	blt	a1,a0,13e60 <_lf_schedule+0x4b0>
   13e08:	00068513          	mv	a0,a3
   13e0c:	00078593          	mv	a1,a5
   13e10:	00b51863          	bne	a0,a1,13e20 <_lf_schedule+0x470>
   13e14:	00060693          	mv	a3,a2
   13e18:	00070793          	mv	a5,a4
   13e1c:	04d7e263          	bltu	a5,a3,13e60 <_lf_schedule+0x4b0>
                            (existing->time == current_tag.time &&
   13e20:	fc842783          	lw	a5,-56(s0)
   13e24:	0007a603          	lw	a2,0(a5)
   13e28:	0047a683          	lw	a3,4(a5)
   13e2c:	34818793          	addi	a5,gp,840 # 34f38 <current_tag>
   13e30:	0007a703          	lw	a4,0(a5)
   13e34:	0047a783          	lw	a5,4(a5)
                    if (existing->time > current_tag.time ||
   13e38:	00060513          	mv	a0,a2
   13e3c:	00070593          	mv	a1,a4
   13e40:	02b51e63          	bne	a0,a1,13e7c <_lf_schedule+0x4cc>
   13e44:	02f69c63          	bne	a3,a5,13e7c <_lf_schedule+0x4cc>
                            pqueue_find_equal_same_priority(event_q, existing) != NULL)) {
   13e48:	2ec1a783          	lw	a5,748(gp) # 34edc <event_q>
   13e4c:	fc842583          	lw	a1,-56(s0)
   13e50:	00078513          	mv	a0,a5
   13e54:	939fd0ef          	jal	ra,1178c <pqueue_find_equal_same_priority>
   13e58:	00050793          	mv	a5,a0
                            (existing->time == current_tag.time &&
   13e5c:	02078063          	beqz	a5,13e7c <_lf_schedule+0x4cc>
                        // Recycle the existing token and the new event                        
                        // and update the token of the existing event.
                        _lf_replace_token(existing, token);
   13e60:	f7842583          	lw	a1,-136(s0)
   13e64:	fc842503          	lw	a0,-56(s0)
   13e68:	dccff0ef          	jal	ra,13434 <_lf_replace_token>
                        _lf_recycle_event(e);
   13e6c:	fcc42503          	lw	a0,-52(s0)
   13e70:	c5cff0ef          	jal	ra,132cc <_lf_recycle_event>
                        return(0);
   13e74:	00000793          	li	a5,0
   13e78:	2200006f          	j	14098 <_lf_schedule+0x6e8>
                    }
                    // If the preceding event _has_ been handled, then adjust
                    // the tag to defer the event.
                    intended_time = earliest_time;
   13e7c:	fc042703          	lw	a4,-64(s0)
   13e80:	fc442783          	lw	a5,-60(s0)
   13e84:	fee42423          	sw	a4,-24(s0)
   13e88:	fef42623          	sw	a5,-20(s0)
                    break;
   13e8c:	0d80006f          	j	13f64 <_lf_schedule+0x5b4>
                default:
                    if (existing->time == current_tag.time &&
   13e90:	fc842783          	lw	a5,-56(s0)
   13e94:	0007a603          	lw	a2,0(a5)
   13e98:	0047a683          	lw	a3,4(a5)
   13e9c:	34818793          	addi	a5,gp,840 # 34f38 <current_tag>
   13ea0:	0007a703          	lw	a4,0(a5)
   13ea4:	0047a783          	lw	a5,4(a5)
   13ea8:	00060513          	mv	a0,a2
   13eac:	00070593          	mv	a1,a4
   13eb0:	08b51e63          	bne	a0,a1,13f4c <_lf_schedule+0x59c>
   13eb4:	08f69c63          	bne	a3,a5,13f4c <_lf_schedule+0x59c>
                            pqueue_find_equal_same_priority(event_q, existing) != NULL) {
   13eb8:	2ec1a783          	lw	a5,748(gp) # 34edc <event_q>
   13ebc:	fc842583          	lw	a1,-56(s0)
   13ec0:	00078513          	mv	a0,a5
   13ec4:	8c9fd0ef          	jal	ra,1178c <pqueue_find_equal_same_priority>
   13ec8:	00050793          	mv	a5,a0
                    if (existing->time == current_tag.time &&
   13ecc:	08078063          	beqz	a5,13f4c <_lf_schedule+0x59c>
                        if (_lf_is_tag_after_stop_tag((tag_t){.time=existing->time,.microstep=get_microstep()+1})) {
   13ed0:	fc842783          	lw	a5,-56(s0)
   13ed4:	0007a703          	lw	a4,0(a5)
   13ed8:	0047a783          	lw	a5,4(a5)
   13edc:	f8e42423          	sw	a4,-120(s0)
   13ee0:	f8f42623          	sw	a5,-116(s0)
   13ee4:	d28fc0ef          	jal	ra,1040c <get_microstep>
   13ee8:	00050793          	mv	a5,a0
   13eec:	00178793          	addi	a5,a5,1
   13ef0:	f8f42823          	sw	a5,-112(s0)
   13ef4:	f8842603          	lw	a2,-120(s0)
   13ef8:	f8c42683          	lw	a3,-116(s0)
   13efc:	f9042703          	lw	a4,-112(s0)
   13f00:	f9442783          	lw	a5,-108(s0)
   13f04:	f6c42023          	sw	a2,-160(s0)
   13f08:	f6d42223          	sw	a3,-156(s0)
   13f0c:	f6e42423          	sw	a4,-152(s0)
   13f10:	f6f42623          	sw	a5,-148(s0)
   13f14:	f6040793          	addi	a5,s0,-160
   13f18:	00078513          	mv	a0,a5
   13f1c:	eb9fe0ef          	jal	ra,12dd4 <_lf_is_tag_after_stop_tag>
   13f20:	00050793          	mv	a5,a0
   13f24:	00078a63          	beqz	a5,13f38 <_lf_schedule+0x588>
                            // Scheduling e will incur a microstep at timeout, 
                            // which is illegal.
                            _lf_recycle_event(e);
   13f28:	fcc42503          	lw	a0,-52(s0)
   13f2c:	ba0ff0ef          	jal	ra,132cc <_lf_recycle_event>
                            return 0;
   13f30:	00000793          	li	a5,0
   13f34:	1640006f          	j	14098 <_lf_schedule+0x6e8>
                        }
                        // If the last event hasn't been handled yet, insert
                        // the new event right behind.
                        existing->next = e;
   13f38:	fc842783          	lw	a5,-56(s0)
   13f3c:	fcc42703          	lw	a4,-52(s0)
   13f40:	00e7ac23          	sw	a4,24(a5)
                        return 0; // FIXME: return a value
   13f44:	00000793          	li	a5,0
   13f48:	1500006f          	j	14098 <_lf_schedule+0x6e8>
                    } else {
                         // Adjust the tag.
                        intended_time = earliest_time;
   13f4c:	fc042703          	lw	a4,-64(s0)
   13f50:	fc442783          	lw	a5,-60(s0)
   13f54:	fee42423          	sw	a4,-24(s0)
   13f58:	fef42623          	sw	a5,-20(s0)
                    }
                    break;
   13f5c:	0080006f          	j	13f64 <_lf_schedule+0x5b4>
            }
        }
   13f60:	00000013          	nop

    // Check if the intended time is in the future
    // This is a sanity check for the logic above
    // FIXME: This is a development assertion and might
    // not be necessary for end-user LF programs
    if (intended_time < current_tag.time) {
   13f64:	34818793          	addi	a5,gp,840 # 34f38 <current_tag>
   13f68:	0007a703          	lw	a4,0(a5)
   13f6c:	0047a783          	lw	a5,4(a5)
   13f70:	fec42683          	lw	a3,-20(s0)
   13f74:	00078613          	mv	a2,a5
   13f78:	00c6ce63          	blt	a3,a2,13f94 <_lf_schedule+0x5e4>
   13f7c:	fec42683          	lw	a3,-20(s0)
   13f80:	00078613          	mv	a2,a5
   13f84:	06c69463          	bne	a3,a2,13fec <_lf_schedule+0x63c>
   13f88:	fe842683          	lw	a3,-24(s0)
   13f8c:	00070793          	mv	a5,a4
   13f90:	04f6fe63          	bgeu	a3,a5,13fec <_lf_schedule+0x63c>
        error_print("Attempting to schedule an event earlier than current time by %lld nsec! "
                "Revising to the current time %lld.",
                current_tag.time - intended_time, current_tag.time);
   13f94:	34818793          	addi	a5,gp,840 # 34f38 <current_tag>
   13f98:	0007a703          	lw	a4,0(a5)
   13f9c:	0047a783          	lw	a5,4(a5)
        error_print("Attempting to schedule an event earlier than current time by %lld nsec! "
   13fa0:	fe842503          	lw	a0,-24(s0)
   13fa4:	fec42583          	lw	a1,-20(s0)
   13fa8:	40a70633          	sub	a2,a4,a0
   13fac:	00060813          	mv	a6,a2
   13fb0:	01073833          	sltu	a6,a4,a6
   13fb4:	40b786b3          	sub	a3,a5,a1
   13fb8:	410687b3          	sub	a5,a3,a6
   13fbc:	00078693          	mv	a3,a5
   13fc0:	34818793          	addi	a5,gp,840 # 34f38 <current_tag>
   13fc4:	0007a703          	lw	a4,0(a5)
   13fc8:	0047a783          	lw	a5,4(a5)
   13fcc:	000315b7          	lui	a1,0x31
   13fd0:	72c58513          	addi	a0,a1,1836 # 3172c <_exit+0x348>
   13fd4:	a30fe0ef          	jal	ra,12204 <error_print>
        intended_time = current_tag.time;
   13fd8:	34818793          	addi	a5,gp,840 # 34f38 <current_tag>
   13fdc:	0007a703          	lw	a4,0(a5)
   13fe0:	0047a783          	lw	a5,4(a5)
   13fe4:	fee42423          	sw	a4,-24(s0)
   13fe8:	fef42623          	sw	a5,-20(s0)
    }

    // Set the tag of the event.
    e->time = intended_time;
   13fec:	fcc42683          	lw	a3,-52(s0)
   13ff0:	fe842703          	lw	a4,-24(s0)
   13ff4:	fec42783          	lw	a5,-20(s0)
   13ff8:	00e6a023          	sw	a4,0(a3)
   13ffc:	00f6a223          	sw	a5,4(a3)

    // Do not schedule events if if the event time is past the stop time
    // (current microsteps are checked earlier).
    DEBUG_PRINT("Comparing event with elapsed time %lld against stop time %lld.", e->time - start_time, stop_tag.time - start_time);
    if (e->time > stop_tag.time) {
   14000:	fcc42783          	lw	a5,-52(s0)
   14004:	0007a603          	lw	a2,0(a5)
   14008:	0047a683          	lw	a3,4(a5)
   1400c:	000347b7          	lui	a5,0x34
   14010:	3f078793          	addi	a5,a5,1008 # 343f0 <stop_tag>
   14014:	0007a703          	lw	a4,0(a5)
   14018:	0047a783          	lw	a5,4(a5)
   1401c:	00068513          	mv	a0,a3
   14020:	00078593          	mv	a1,a5
   14024:	00a5ce63          	blt	a1,a0,14040 <_lf_schedule+0x690>
   14028:	00068513          	mv	a0,a3
   1402c:	00078593          	mv	a1,a5
   14030:	02b51463          	bne	a0,a1,14058 <_lf_schedule+0x6a8>
   14034:	00060693          	mv	a3,a2
   14038:	00070793          	mv	a5,a4
   1403c:	00d7fe63          	bgeu	a5,a3,14058 <_lf_schedule+0x6a8>
        DEBUG_PRINT("_lf_schedule: event time is past the timeout. Discarding event.");
        _lf_done_using(token);
   14040:	f7842503          	lw	a0,-136(s0)
   14044:	905fe0ef          	jal	ra,12948 <_lf_done_using>
        _lf_recycle_event(e);
   14048:	fcc42503          	lw	a0,-52(s0)
   1404c:	a80ff0ef          	jal	ra,132cc <_lf_recycle_event>
        return(0);
   14050:	00000793          	li	a5,0
   14054:	0440006f          	j	14098 <_lf_schedule+0x6e8>
    }
    
    // Store a pointer to the current event in order to check the min spacing
    // between this and the following event. Only necessary for actions
    // that actually specify a min spacing.
    trigger->last = (event_t*)e;
   14058:	f7c42783          	lw	a5,-132(s0)
   1405c:	fcc42703          	lw	a4,-52(s0)
   14060:	02e7a423          	sw	a4,40(a5)
    // and any new events added at this tag will go into the reaction_q
    // rather than the event_q, so anything put in the event_q with this
    // same time will automatically be executed at the next microstep.
    LOG_PRINT("Inserting event in the event queue with elapsed time %lld.",
            e->time - start_time);
    pqueue_insert(event_q, e);
   14064:	2ec1a783          	lw	a5,748(gp) # 34edc <event_q>
   14068:	fcc42583          	lw	a1,-52(s0)
   1406c:	00078513          	mv	a0,a5
   14070:	facfd0ef          	jal	ra,1181c <pqueue_insert>

    // FIXME: make a record of handle and implement unschedule.
    // NOTE: Rather than wrapping around to get a negative number,
    // we reset the handle on the assumption that much earlier
    // handles are irrelevant.
    int return_value = _lf_handle++;
   14074:	2601a783          	lw	a5,608(gp) # 34e50 <_lf_handle>
   14078:	00178693          	addi	a3,a5,1
   1407c:	26d1a023          	sw	a3,608(gp) # 34e50 <_lf_handle>
   14080:	faf42e23          	sw	a5,-68(s0)
    if (_lf_handle < 0) {
   14084:	2601a783          	lw	a5,608(gp) # 34e50 <_lf_handle>
   14088:	0007d663          	bgez	a5,14094 <_lf_schedule+0x6e4>
        _lf_handle = 1;
   1408c:	00100713          	li	a4,1
   14090:	26e1a023          	sw	a4,608(gp) # 34e50 <_lf_handle>
    }
    return return_value;
   14094:	fbc42783          	lw	a5,-68(s0)
}
   14098:	00078513          	mv	a0,a5
   1409c:	09c12083          	lw	ra,156(sp)
   140a0:	09812403          	lw	s0,152(sp)
   140a4:	0a010113          	addi	sp,sp,160
   140a8:	00008067          	ret

000140ac <_lf_insert_reactions_for_trigger>:
 * @param trigger The trigger
 * @param token The token wrapping the payload or NULL for no payload.
 * @return 1 if successful, or 0 if no new reaction was scheduled because the function
 *  was called incorrectly.
 */
trigger_handle_t _lf_insert_reactions_for_trigger(trigger_t* trigger, lf_token_t* token) {
   140ac:	fd010113          	addi	sp,sp,-48
   140b0:	02112623          	sw	ra,44(sp)
   140b4:	02812423          	sw	s0,40(sp)
   140b8:	03010413          	addi	s0,sp,48
   140bc:	fca42e23          	sw	a0,-36(s0)
   140c0:	fcb42c23          	sw	a1,-40(s0)
    // The trigger argument could be null, meaning that nothing is triggered.
    // Doing this after incrementing the reference count ensures that the
    // payload will be freed, if there is one.
	if (trigger == NULL) {
   140c4:	fdc42783          	lw	a5,-36(s0)
   140c8:	02079063          	bnez	a5,140e8 <_lf_insert_reactions_for_trigger+0x3c>
        warning_print("_lf_schedule_init_reactions() called with a NULL trigger");
   140cc:	000317b7          	lui	a5,0x31
   140d0:	79878513          	addi	a0,a5,1944 # 31798 <_exit+0x3b4>
   140d4:	9a8fe0ef          	jal	ra,1227c <warning_print>
	    _lf_done_using(token);
   140d8:	fd842503          	lw	a0,-40(s0)
   140dc:	86dfe0ef          	jal	ra,12948 <_lf_done_using>
	    return 0;
   140e0:	00000793          	li	a5,0
   140e4:	1400006f          	j	14224 <_lf_insert_reactions_for_trigger+0x178>
	}
    
    // Check to see if the trigger is not a timer
    // and not a physical action
    if (trigger->is_timer || trigger->is_physical) {
   140e8:	fdc42783          	lw	a5,-36(s0)
   140ec:	0087c783          	lbu	a5,8(a5)
   140f0:	00079863          	bnez	a5,14100 <_lf_insert_reactions_for_trigger+0x54>
   140f4:	fdc42783          	lw	a5,-36(s0)
   140f8:	0247c783          	lbu	a5,36(a5)
